
build/benchmark.elf:     file format elf64-littleriscv


Disassembly of section .text:

0000000000200000 <_start>:
  200000:	00004197          	auipc	gp,0x4
  200004:	86018193          	addi	gp,gp,-1952 # 203860 <__global_pointer$>
  200008:	1e50106f          	j	2019ec <main>

000000000020000c <notified>:
  20000c:	7139                	addi	sp,sp,-64
  20000e:	fc06                	sd	ra,56(sp)
  200010:	f822                	sd	s0,48(sp)
  200012:	f426                	sd	s1,40(sp)
  200014:	f04a                	sd	s2,32(sp)
  200016:	ec4e                	sd	s3,24(sp)
  200018:	e852                	sd	s4,16(sp)
  20001a:	e456                	sd	s5,8(sp)
  20001c:	e05a                	sd	s6,0(sp)
  20001e:	002035b7          	lui	a1,0x203
  200022:	0b85c603          	lbu	a2,184(a1) # 2030b8 <serial_config+0x50>
  200026:	0ec50663          	beq	a0,a2,200112 <notified+0x106>
  20002a:	85aa                	mv	a1,a0
  20002c:	00203537          	lui	a0,0x203
  200030:	0c054503          	lbu	a0,192(a0) # 2030c0 <benchmark_config>
  200034:	0ca58f63          	beq	a1,a0,200112 <notified+0x106>
  200038:	00203b37          	lui	s6,0x203
  20003c:	0c0b0b13          	addi	s6,s6,192 # 2030c0 <benchmark_config>
  200040:	001b4503          	lbu	a0,1(s6)
  200044:	0ea59163          	bne	a1,a0,200126 <notified+0x11a>
  200048:	4801                	li	a6,0
  20004a:	4601                	li	a2,0
  20004c:	4681                	li	a3,0
  20004e:	4701                	li	a4,0
  200050:	4781                	li	a5,0
  200052:	4581                	li	a1,0
  200054:	4501                	li	a0,0
  200056:	58a9                	li	a7,-22
  200058:	00000073          	ecall
  20005c:	589d                	li	a7,-25
  20005e:	4519                	li	a0,6
  200060:	4801                	li	a6,0
  200062:	4601                	li	a2,0
  200064:	4681                	li	a3,0
  200066:	4701                	li	a4,0
  200068:	4781                	li	a5,0
  20006a:	4581                	li	a1,0
  20006c:	00000073          	ecall
  200070:	00203937          	lui	s2,0x203
  200074:	06093503          	ld	a0,96(s2) # 203060 <__sel4_ipc_buffer>
  200078:	6938                	ld	a4,80(a0)
  20007a:	6d34                	ld	a3,88(a0)
  20007c:	712c                	ld	a1,96(a0)
  20007e:	7530                	ld	a2,104(a0)
  200080:	00202537          	lui	a0,0x202
  200084:	08d50513          	addi	a0,a0,141 # 20208d <_text_end+0x165>
  200088:	2c0000ef          	jal	200348 <sddf_printf_>
  20008c:	003b4503          	lbu	a0,3(s6)
  200090:	c149                	beqz	a0,200112 <notified+0x106>
  200092:	4401                	li	s0,0
  200094:	00202a37          	lui	s4,0x202
  200098:	f40a0a13          	addi	s4,s4,-192 # 201f40 <_text_end+0x18>
  20009c:	002029b7          	lui	s3,0x202
  2000a0:	fda98993          	addi	s3,s3,-38 # 201fda <_text_end+0xb2>
  2000a4:	044b0a93          	addi	s5,s6,68
  2000a8:	a015                	j	2000cc <notified+0xc0>
  2000aa:	fc058593          	addi	a1,a1,-64
  2000ae:	06093503          	ld	a0,96(s2)
  2000b2:	00853803          	ld	a6,8(a0)
  2000b6:	691c                	ld	a5,16(a0)
  2000b8:	6d14                	ld	a3,24(a0)
  2000ba:	7118                	ld	a4,32(a0)
  2000bc:	854e                	mv	a0,s3
  2000be:	28a000ef          	jal	200348 <sddf_printf_>
  2000c2:	003b4503          	lbu	a0,3(s6)
  2000c6:	0405                	addi	s0,s0,1
  2000c8:	04a47563          	bgeu	s0,a0,200112 <notified+0x106>
  2000cc:	00641513          	slli	a0,s0,0x6
  2000d0:	9522                	add	a0,a0,s0
  2000d2:	00ab04b3          	add	s1,s6,a0
  2000d6:	0444c503          	lbu	a0,68(s1)
  2000da:	0ca50513          	addi	a0,a0,202
  2000de:	589d                	li	a7,-25
  2000e0:	4801                	li	a6,0
  2000e2:	4601                	li	a2,0
  2000e4:	4681                	li	a3,0
  2000e6:	4701                	li	a4,0
  2000e8:	4781                	li	a5,0
  2000ea:	4581                	li	a1,0
  2000ec:	00000073          	ecall
  2000f0:	003b4503          	lbu	a0,3(s6)
  2000f4:	0444c603          	lbu	a2,68(s1)
  2000f8:	85d2                	mv	a1,s4
  2000fa:	d955                	beqz	a0,2000ae <notified+0xa2>
  2000fc:	85d6                	mv	a1,s5
  2000fe:	0005c683          	lbu	a3,0(a1)
  200102:	fad604e3          	beq	a2,a3,2000aa <notified+0x9e>
  200106:	157d                	addi	a0,a0,-1
  200108:	04158593          	addi	a1,a1,65
  20010c:	f96d                	bnez	a0,2000fe <notified+0xf2>
  20010e:	85d2                	mv	a1,s4
  200110:	bf79                	j	2000ae <notified+0xa2>
  200112:	70e2                	ld	ra,56(sp)
  200114:	7442                	ld	s0,48(sp)
  200116:	74a2                	ld	s1,40(sp)
  200118:	7902                	ld	s2,32(sp)
  20011a:	69e2                	ld	s3,24(sp)
  20011c:	6a42                	ld	s4,16(sp)
  20011e:	6aa2                	ld	s5,8(sp)
  200120:	6b02                	ld	s6,0(sp)
  200122:	6121                	addi	sp,sp,64
  200124:	8082                	ret
  200126:	00202537          	lui	a0,0x202
  20012a:	1c250513          	addi	a0,a0,450 # 2021c2 <_text_end+0x29a>
  20012e:	70e2                	ld	ra,56(sp)
  200130:	7442                	ld	s0,48(sp)
  200132:	74a2                	ld	s1,40(sp)
  200134:	7902                	ld	s2,32(sp)
  200136:	69e2                	ld	s3,24(sp)
  200138:	6a42                	ld	s4,16(sp)
  20013a:	6aa2                	ld	s5,8(sp)
  20013c:	6b02                	ld	s6,0(sp)
  20013e:	6121                	addi	sp,sp,64
  200140:	a421                	j	200348 <sddf_printf_>

0000000000200142 <init>:
  200142:	1141                	addi	sp,sp,-16
  200144:	e406                	sd	ra,8(sp)
  200146:	e022                	sd	s0,0(sp)
  200148:	00203537          	lui	a0,0x203
  20014c:	06850513          	addi	a0,a0,104 # 203068 <serial_config>
  200150:	002045b7          	lui	a1,0x204
  200154:	7910                	ld	a2,48(a0)
  200156:	6134                	ld	a3,64(a0)
  200158:	6538                	ld	a4,72(a0)
  20015a:	05054503          	lbu	a0,80(a0)
  20015e:	12c5bc23          	sd	a2,312(a1) # 204138 <serial_tx_queue_handle>
  200162:	13858593          	addi	a1,a1,312
  200166:	c598                	sw	a4,8(a1)
  200168:	e994                	sd	a3,16(a1)
  20016a:	027010ef          	jal	201990 <serial_putchar_init>
  20016e:	00202537          	lui	a0,0x202
  200172:	27a50513          	addi	a0,a0,634 # 20227a <_text_end+0x352>
  200176:	1d2000ef          	jal	200348 <sddf_printf_>
  20017a:	00202537          	lui	a0,0x202
  20017e:	1fd50513          	addi	a0,a0,509 # 2021fd <_text_end+0x2d5>
  200182:	1c6000ef          	jal	200348 <sddf_printf_>
  200186:	00202537          	lui	a0,0x202
  20018a:	17c50513          	addi	a0,a0,380 # 20217c <_text_end+0x254>
  20018e:	1ba000ef          	jal	200348 <sddf_printf_>
  200192:	00203537          	lui	a0,0x203
  200196:	0c254403          	lbu	s0,194(a0) # 2030c2 <benchmark_config+0x2>
  20019a:	03d00513          	li	a0,61
  20019e:	02856463          	bltu	a0,s0,2001c6 <init+0x84>
  2001a2:	00204537          	lui	a0,0x204
  2001a6:	11053503          	ld	a0,272(a0) # 204110 <microkit_notifications>
  2001aa:	00855533          	srl	a0,a0,s0
  2001ae:	8905                	andi	a0,a0,1
  2001b0:	c919                	beqz	a0,2001c6 <init+0x84>
  2001b2:	00a40513          	addi	a0,s0,10
  2001b6:	58ed                	li	a7,-5
  2001b8:	4581                	li	a1,0
  2001ba:	00000073          	ecall
  2001be:	60a2                	ld	ra,8(sp)
  2001c0:	6402                	ld	s0,0(sp)
  2001c2:	0141                	addi	sp,sp,16
  2001c4:	8082                	ret
  2001c6:	00204537          	lui	a0,0x204
  2001ca:	1a850513          	addi	a0,a0,424 # 2041a8 <microkit_name>
  2001ce:	177010ef          	jal	201b44 <microkit_dbg_puts>
  2001d2:	00202537          	lui	a0,0x202
  2001d6:	f5e50513          	addi	a0,a0,-162 # 201f5e <_text_end+0x36>
  2001da:	16b010ef          	jal	201b44 <microkit_dbg_puts>
  2001de:	8522                	mv	a0,s0
  2001e0:	1cd010ef          	jal	201bac <microkit_dbg_put32>
  2001e4:	00202537          	lui	a0,0x202
  2001e8:	fca50513          	addi	a0,a0,-54 # 201fca <_text_end+0xa2>
  2001ec:	60a2                	ld	ra,8(sp)
  2001ee:	6402                	ld	s0,0(sp)
  2001f0:	0141                	addi	sp,sp,16
  2001f2:	1530106f          	j	201b44 <microkit_dbg_puts>

00000000002001f6 <fault>:
  2001f6:	7139                	addi	sp,sp,-64
  2001f8:	fc06                	sd	ra,56(sp)
  2001fa:	f822                	sd	s0,48(sp)
  2001fc:	f426                	sd	s1,40(sp)
  2001fe:	f04a                	sd	s2,32(sp)
  200200:	892e                	mv	s2,a1
  200202:	84aa                	mv	s1,a0
  200204:	00203637          	lui	a2,0x203
  200208:	0c060613          	addi	a2,a2,192 # 2030c0 <benchmark_config>
  20020c:	00364503          	lbu	a0,3(a2)
  200210:	002025b7          	lui	a1,0x202
  200214:	f4058593          	addi	a1,a1,-192 # 201f40 <_text_end+0x18>
  200218:	c105                	beqz	a0,200238 <fault+0x42>
  20021a:	0ff4f693          	zext.b	a3,s1
  20021e:	04460613          	addi	a2,a2,68
  200222:	00064703          	lbu	a4,0(a2)
  200226:	00d70763          	beq	a4,a3,200234 <fault+0x3e>
  20022a:	157d                	addi	a0,a0,-1
  20022c:	04160613          	addi	a2,a2,65
  200230:	f96d                	bnez	a0,200222 <fault+0x2c>
  200232:	a019                	j	200238 <fault+0x42>
  200234:	fc060593          	addi	a1,a2,-64
  200238:	00202537          	lui	a0,0x202
  20023c:	05850513          	addi	a0,a0,88 # 202058 <_text_end+0x130>
  200240:	8626                	mv	a2,s1
  200242:	106000ef          	jal	200348 <sddf_printf_>
  200246:	4801                	li	a6,0
  200248:	4601                	li	a2,0
  20024a:	4701                	li	a4,0
  20024c:	4781                	li	a5,0
  20024e:	0ca48513          	addi	a0,s1,202
  200252:	6589                	lui	a1,0x2
  200254:	54fd                	li	s1,-1
  200256:	58fd                	li	a7,-1
  200258:	02000693          	li	a3,32
  20025c:	1502                	slli	a0,a0,0x20
  20025e:	2589                	addiw	a1,a1,2 # 2002 <.LLST8+0x17>
  200260:	9101                	srli	a0,a0,0x20
  200262:	1482                	slli	s1,s1,0x20
  200264:	00000073          	ecall
  200268:	82b2                	mv	t0,a2
  20026a:	8636                	mv	a2,a3
  20026c:	86ba                	mv	a3,a4
  20026e:	873e                	mv	a4,a5
  200270:	00203537          	lui	a0,0x203
  200274:	06053503          	ld	a0,96(a0) # 203060 <__sel4_ipc_buffer>
  200278:	80d1                	srli	s1,s1,0x14
  20027a:	8de5                	and	a1,a1,s1
  20027c:	c591                	beqz	a1,200288 <fault+0x92>
  20027e:	00553423          	sd	t0,8(a0)
  200282:	e910                	sd	a2,16(a0)
  200284:	ed14                	sd	a3,24(a0)
  200286:	f118                	sd	a4,32(a0)
  200288:	751c                	ld	a5,40(a0)
  20028a:	03053803          	ld	a6,48(a0)
  20028e:	03853883          	ld	a7,56(a0)
  200292:	612c                	ld	a1,64(a0)
  200294:	6524                	ld	s1,72(a0)
  200296:	6920                	ld	s0,80(a0)
  200298:	00202537          	lui	a0,0x202
  20029c:	11550513          	addi	a0,a0,277 # 202115 <_text_end+0x1ed>
  2002a0:	e02e                	sd	a1,0(sp)
  2002a2:	e426                	sd	s1,8(sp)
  2002a4:	e822                	sd	s0,16(sp)
  2002a6:	8596                	mv	a1,t0
  2002a8:	0a0000ef          	jal	200348 <sddf_printf_>
  2002ac:	00c95413          	srli	s0,s2,0xc
  2002b0:	4519                	li	a0,6
  2002b2:	02a40a63          	beq	s0,a0,2002e6 <fault+0xf0>
  2002b6:	450d                	li	a0,3
  2002b8:	02a40263          	beq	s0,a0,2002dc <fault+0xe6>
  2002bc:	4505                	li	a0,1
  2002be:	04a41263          	bne	s0,a0,200302 <fault+0x10c>
  2002c2:	00203537          	lui	a0,0x203
  2002c6:	06053503          	ld	a0,96(a0) # 203060 <__sel4_ipc_buffer>
  2002ca:	6d14                	ld	a3,24(a0)
  2002cc:	650c                	ld	a1,8(a0)
  2002ce:	6910                	ld	a2,16(a0)
  2002d0:	cab9                	beqz	a3,200326 <fault+0x130>
  2002d2:	002026b7          	lui	a3,0x202
  2002d6:	07868693          	addi	a3,a3,120 # 202078 <_text_end+0x150>
  2002da:	a891                	j	20032e <fault+0x138>
  2002dc:	00202537          	lui	a0,0x202
  2002e0:	1b350513          	addi	a0,a0,435 # 2021b3 <_text_end+0x28b>
  2002e4:	a01d                	j	20030a <fault+0x114>
  2002e6:	00203537          	lui	a0,0x203
  2002ea:	06053503          	ld	a0,96(a0) # 203060 <__sel4_ipc_buffer>
  2002ee:	650c                	ld	a1,8(a0)
  2002f0:	6910                	ld	a2,16(a0)
  2002f2:	6d18                	ld	a4,24(a0)
  2002f4:	7114                	ld	a3,32(a0)
  2002f6:	cf09                	beqz	a4,200310 <fault+0x11a>
  2002f8:	00202737          	lui	a4,0x202
  2002fc:	fa070713          	addi	a4,a4,-96 # 201fa0 <_text_end+0x78>
  200300:	a821                	j	200318 <fault+0x122>
  200302:	00202537          	lui	a0,0x202
  200306:	f8d50513          	addi	a0,a0,-115 # 201f8d <_text_end+0x65>
  20030a:	03e000ef          	jal	200348 <sddf_printf_>
  20030e:	a035                	j	20033a <fault+0x144>
  200310:	00202737          	lui	a4,0x202
  200314:	f5170713          	addi	a4,a4,-175 # 201f51 <_text_end+0x29>
  200318:	00202537          	lui	a0,0x202
  20031c:	2a850513          	addi	a0,a0,680 # 2022a8 <_text_end+0x380>
  200320:	028000ef          	jal	200348 <sddf_printf_>
  200324:	a819                	j	20033a <fault+0x144>
  200326:	002026b7          	lui	a3,0x202
  20032a:	f3a68693          	addi	a3,a3,-198 # 201f3a <_text_end+0x12>
  20032e:	00202537          	lui	a0,0x202
  200332:	24650513          	addi	a0,a0,582 # 202246 <_text_end+0x31e>
  200336:	012000ef          	jal	200348 <sddf_printf_>
  20033a:	4501                	li	a0,0
  20033c:	70e2                	ld	ra,56(sp)
  20033e:	7442                	ld	s0,48(sp)
  200340:	74a2                	ld	s1,40(sp)
  200342:	7902                	ld	s2,32(sp)
  200344:	6121                	addi	sp,sp,64
  200346:	8082                	ret

0000000000200348 <sddf_printf_>:
  200348:	711d                	addi	sp,sp,-96
  20034a:	ec06                	sd	ra,24(sp)
  20034c:	82aa                	mv	t0,a0
  20034e:	e4be                	sd	a5,72(sp)
  200350:	e8c2                	sd	a6,80(sp)
  200352:	ecc6                	sd	a7,88(sp)
  200354:	f42e                	sd	a1,40(sp)
  200356:	f832                	sd	a2,48(sp)
  200358:	fc36                	sd	a3,56(sp)
  20035a:	e0ba                	sd	a4,64(sp)
  20035c:	1028                	addi	a0,sp,40
  20035e:	e82a                	sd	a0,16(sp)
  200360:	00201537          	lui	a0,0x201
  200364:	b9c50513          	addi	a0,a0,-1124 # 200b9c <_out_char>
  200368:	00f10593          	addi	a1,sp,15
  20036c:	567d                	li	a2,-1
  20036e:	1038                	addi	a4,sp,40
  200370:	8696                	mv	a3,t0
  200372:	00a000ef          	jal	20037c <_vsnprintf>
  200376:	60e2                	ld	ra,24(sp)
  200378:	6125                	addi	sp,sp,96
  20037a:	8082                	ret

000000000020037c <_vsnprintf>:
  20037c:	7131                	addi	sp,sp,-192
  20037e:	fd06                	sd	ra,184(sp)
  200380:	f922                	sd	s0,176(sp)
  200382:	f526                	sd	s1,168(sp)
  200384:	f14a                	sd	s2,160(sp)
  200386:	ed4e                	sd	s3,152(sp)
  200388:	e952                	sd	s4,144(sp)
  20038a:	e556                	sd	s5,136(sp)
  20038c:	e15a                	sd	s6,128(sp)
  20038e:	fcde                	sd	s7,120(sp)
  200390:	f8e2                	sd	s8,112(sp)
  200392:	f4e6                	sd	s9,104(sp)
  200394:	f0ea                	sd	s10,96(sp)
  200396:	ecee                	sd	s11,88(sp)
  200398:	8cb6                	mv	s9,a3
  20039a:	8ab2                	mv	s5,a2
  20039c:	8a2e                	mv	s4,a1
  20039e:	c199                	beqz	a1,2003a4 <_vsnprintf+0x28>
  2003a0:	892a                	mv	s2,a0
  2003a2:	a029                	j	2003ac <_vsnprintf+0x30>
  2003a4:	00201937          	lui	s2,0x201
  2003a8:	c8290913          	addi	s2,s2,-894 # 200c82 <_out_null>
  2003ac:	f83a                	sd	a4,48(sp)
  2003ae:	4b01                	li	s6,0
  2003b0:	02500d13          	li	s10,37
  2003b4:	4c41                	li	s8,16
  2003b6:	4505                	li	a0,1
  2003b8:	00b5151b          	slliw	a0,a0,0xb
  2003bc:	f42a                	sd	a0,40(sp)
  2003be:	00202db7          	lui	s11,0x202
  2003c2:	d18d8d93          	addi	s11,s11,-744 # 201d18 <.LJTI1_0>
  2003c6:	4981                	li	s3,0
  2003c8:	002c8413          	addi	s0,s9,2
  2003cc:	4b81                	li	s7,0
  2003ce:	4601                	li	a2,0
  2003d0:	000cc503          	lbu	a0,0(s9)
  2003d4:	78050b63          	beqz	a0,200b6a <_vsnprintf+0x7ee>
  2003d8:	03a50063          	beq	a0,s10,2003f8 <_vsnprintf+0x7c>
  2003dc:	00160493          	addi	s1,a2,1
  2003e0:	85d2                	mv	a1,s4
  2003e2:	86d6                	mv	a3,s5
  2003e4:	9902                	jalr	s2
  2003e6:	0c85                	addi	s9,s9,1
  2003e8:	0b85                	addi	s7,s7,1
  2003ea:	0405                	addi	s0,s0,1
  2003ec:	0985                	addi	s3,s3,1
  2003ee:	8626                	mv	a2,s1
  2003f0:	000cc503          	lbu	a0,0(s9)
  2003f4:	f175                	bnez	a0,2003d8 <_vsnprintf+0x5c>
  2003f6:	af95                	j	200b6a <_vsnprintf+0x7ee>
  2003f8:	4f01                	li	t5,0
  2003fa:	a029                	j	200404 <_vsnprintf+0x88>
  2003fc:	45a1                	li	a1,8
  2003fe:	00bf6f33          	or	t5,t5,a1
  200402:	0405                	addi	s0,s0,1
  200404:	fff44503          	lbu	a0,-1(s0)
  200408:	fe050593          	addi	a1,a0,-32
  20040c:	00bc6d63          	bltu	s8,a1,200426 <_vsnprintf+0xaa>
  200410:	058a                	slli	a1,a1,0x2
  200412:	95ee                	add	a1,a1,s11
  200414:	4194                	lw	a3,0(a1)
  200416:	4585                	li	a1,1
  200418:	8682                	jr	a3
  20041a:	45c1                	li	a1,16
  20041c:	b7cd                	j	2003fe <_vsnprintf+0x82>
  20041e:	4591                	li	a1,4
  200420:	bff9                	j	2003fe <_vsnprintf+0x82>
  200422:	4589                	li	a1,2
  200424:	bfe9                	j	2003fe <_vsnprintf+0x82>
  200426:	fd050593          	addi	a1,a0,-48
  20042a:	0ff5f593          	zext.b	a1,a1
  20042e:	fff40b93          	addi	s7,s0,-1
  200432:	46a5                	li	a3,9
  200434:	06b6e763          	bltu	a3,a1,2004a2 <_vsnprintf+0x126>
  200438:	4c81                	li	s9,0
  20043a:	44a9                	li	s1,10
  20043c:	0ff57593          	zext.b	a1,a0
  200440:	001bc503          	lbu	a0,1(s7)
  200444:	029c86b3          	mul	a3,s9,s1
  200448:	0b85                	addi	s7,s7,1
  20044a:	95b6                	add	a1,a1,a3
  20044c:	fd050693          	addi	a3,a0,-48
  200450:	0ff6f693          	zext.b	a3,a3
  200454:	fd058c9b          	addiw	s9,a1,-48
  200458:	fe96e2e3          	bltu	a3,s1,20043c <_vsnprintf+0xc0>
  20045c:	02e00593          	li	a1,46
  200460:	0ab51e63          	bne	a0,a1,20051c <_vsnprintf+0x1a0>
  200464:	001bc503          	lbu	a0,1(s7)
  200468:	400f6f13          	ori	t5,t5,1024
  20046c:	fd050593          	addi	a1,a0,-48
  200470:	0ff5f693          	zext.b	a3,a1
  200474:	001b8593          	addi	a1,s7,1
  200478:	4725                	li	a4,9
  20047a:	04d76f63          	bltu	a4,a3,2004d8 <_vsnprintf+0x15c>
  20047e:	4d01                	li	s10,0
  200480:	0ff57693          	zext.b	a3,a0
  200484:	0015c503          	lbu	a0,1(a1)
  200488:	029d0733          	mul	a4,s10,s1
  20048c:	0585                	addi	a1,a1,1
  20048e:	96ba                	add	a3,a3,a4
  200490:	fd050713          	addi	a4,a0,-48
  200494:	0ff77713          	zext.b	a4,a4
  200498:	fd068d1b          	addiw	s10,a3,-48
  20049c:	fe9762e3          	bltu	a4,s1,200480 <_vsnprintf+0x104>
  2004a0:	a859                	j	200536 <_vsnprintf+0x1ba>
  2004a2:	02a00593          	li	a1,42
  2004a6:	06b51563          	bne	a0,a1,200510 <_vsnprintf+0x194>
  2004aa:	76c2                	ld	a3,48(sp)
  2004ac:	428c                	lw	a1,0(a3)
  2004ae:	06a1                	addi	a3,a3,8
  2004b0:	41f5d51b          	sraiw	a0,a1,0x1f
  2004b4:	00a5c4b3          	xor	s1,a1,a0
  2004b8:	40a48cbb          	subw	s9,s1,a0
  2004bc:	00044503          	lbu	a0,0(s0)
  2004c0:	81f9                	srli	a1,a1,0x1e
  2004c2:	8989                	andi	a1,a1,2
  2004c4:	01e5ef33          	or	t5,a1,t5
  2004c8:	8ba2                	mv	s7,s0
  2004ca:	f836                	sd	a3,48(sp)
  2004cc:	44a9                	li	s1,10
  2004ce:	02e00593          	li	a1,46
  2004d2:	f8b509e3          	beq	a0,a1,200464 <_vsnprintf+0xe8>
  2004d6:	a099                	j	20051c <_vsnprintf+0x1a0>
  2004d8:	02a00693          	li	a3,42
  2004dc:	04d51c63          	bne	a0,a3,200534 <_vsnprintf+0x1b8>
  2004e0:	76c2                	ld	a3,48(sp)
  2004e2:	428c                	lw	a1,0(a3)
  2004e4:	06a1                	addi	a3,a3,8
  2004e6:	002bc503          	lbu	a0,2(s7)
  2004ea:	00b02733          	sgtz	a4,a1
  2004ee:	40e0073b          	negw	a4,a4
  2004f2:	0b89                	addi	s7,s7,2
  2004f4:	00b77d33          	and	s10,a4,a1
  2004f8:	f836                	sd	a3,48(sp)
  2004fa:	f9850593          	addi	a1,a0,-104
  2004fe:	0015d69b          	srliw	a3,a1,0x1
  200502:	01f5959b          	slliw	a1,a1,0x1f
  200506:	8dd5                	or	a1,a1,a3
  200508:	46a5                	li	a3,9
  20050a:	04b6f163          	bgeu	a3,a1,20054c <_vsnprintf+0x1d0>
  20050e:	a8b9                	j	20056c <_vsnprintf+0x1f0>
  200510:	4c81                	li	s9,0
  200512:	44a9                	li	s1,10
  200514:	02e00593          	li	a1,46
  200518:	f4b506e3          	beq	a0,a1,200464 <_vsnprintf+0xe8>
  20051c:	4d01                	li	s10,0
  20051e:	f9850593          	addi	a1,a0,-104
  200522:	0015d69b          	srliw	a3,a1,0x1
  200526:	01f5959b          	slliw	a1,a1,0x1f
  20052a:	8dd5                	or	a1,a1,a3
  20052c:	46a5                	li	a3,9
  20052e:	00b6ff63          	bgeu	a3,a1,20054c <_vsnprintf+0x1d0>
  200532:	a82d                	j	20056c <_vsnprintf+0x1f0>
  200534:	4d01                	li	s10,0
  200536:	8bae                	mv	s7,a1
  200538:	f9850593          	addi	a1,a0,-104
  20053c:	0015d69b          	srliw	a3,a1,0x1
  200540:	01f5959b          	slliw	a1,a1,0x1f
  200544:	8dd5                	or	a1,a1,a3
  200546:	46a5                	li	a3,9
  200548:	02b6e263          	bltu	a3,a1,20056c <_vsnprintf+0x1f0>
  20054c:	058a                	slli	a1,a1,0x2
  20054e:	002026b7          	lui	a3,0x202
  200552:	d5c68693          	addi	a3,a3,-676 # 201d5c <.LJTI1_1>
  200556:	95b6                	add	a1,a1,a3
  200558:	4198                	lw	a4,0(a1)
  20055a:	4585                	li	a1,1
  20055c:	10000693          	li	a3,256
  200560:	8702                	jr	a4
  200562:	9bae                	add	s7,s7,a1
  200564:	000bc503          	lbu	a0,0(s7)
  200568:	00df6f33          	or	t5,t5,a3
  20056c:	fdb50593          	addi	a1,a0,-37
  200570:	05300693          	li	a3,83
  200574:	0eb6ed63          	bltu	a3,a1,20066e <_vsnprintf+0x2f2>
  200578:	058a                	slli	a1,a1,0x2
  20057a:	002026b7          	lui	a3,0x202
  20057e:	d8468693          	addi	a3,a3,-636 # 201d84 <.LJTI1_2>
  200582:	95b6                	add	a1,a1,a3
  200584:	4194                	lw	a3,0(a1)
  200586:	45a1                	li	a1,8
  200588:	48c1                	li	a7,16
  20058a:	8682                	jr	a3
  20058c:	feff7f13          	andi	t5,t5,-17
  200590:	48a9                	li	a7,10
  200592:	fa850593          	addi	a1,a0,-88
  200596:	0015b593          	seqz	a1,a1
  20059a:	0055959b          	slliw	a1,a1,0x5
  20059e:	00bf6f33          	or	t5,t5,a1
  2005a2:	06400593          	li	a1,100
  2005a6:	0eb50663          	beq	a0,a1,200692 <_vsnprintf+0x316>
  2005aa:	85c6                	mv	a1,a7
  2005ac:	06900693          	li	a3,105
  2005b0:	0ed50163          	beq	a0,a3,200692 <_vsnprintf+0x316>
  2005b4:	a8e1                	j	20068c <_vsnprintf+0x310>
  2005b6:	001bc503          	lbu	a0,1(s7)
  2005ba:	06800593          	li	a1,104
  2005be:	06b51c63          	bne	a0,a1,200636 <_vsnprintf+0x2ba>
  2005c2:	4589                	li	a1,2
  2005c4:	0c000693          	li	a3,192
  2005c8:	bf69                	j	200562 <_vsnprintf+0x1e6>
  2005ca:	001bc503          	lbu	a0,1(s7)
  2005ce:	06c00593          	li	a1,108
  2005d2:	06b51663          	bne	a0,a1,20063e <_vsnprintf+0x2c2>
  2005d6:	4589                	li	a1,2
  2005d8:	30000693          	li	a3,768
  2005dc:	b759                	j	200562 <_vsnprintf+0x1e6>
  2005de:	75a2                	ld	a1,40(sp)
  2005e0:	00bf6f33          	or	t5,t5,a1
  2005e4:	00256513          	ori	a0,a0,2
  2005e8:	04700593          	li	a1,71
  2005ec:	00b51463          	bne	a0,a1,2005f4 <_vsnprintf+0x278>
  2005f0:	020f6f13          	ori	t5,t5,32
  2005f4:	7442                	ld	s0,48(sp)
  2005f6:	2008                	fld	fa0,0(s0)
  2005f8:	00840993          	addi	s3,s0,8
  2005fc:	854a                	mv	a0,s2
  2005fe:	85d2                	mv	a1,s4
  200600:	86d6                	mv	a3,s5
  200602:	876a                	mv	a4,s10
  200604:	87e6                	mv	a5,s9
  200606:	887a                	mv	a6,t5
  200608:	38f000ef          	jal	201196 <_etoa>
  20060c:	a6ed                	j	2009f6 <_vsnprintf+0x67a>
  20060e:	fba50513          	addi	a0,a0,-70
  200612:	7442                	ld	s0,48(sp)
  200614:	2008                	fld	fa0,0(s0)
  200616:	00153513          	seqz	a0,a0
  20061a:	0055151b          	slliw	a0,a0,0x5
  20061e:	00af6833          	or	a6,t5,a0
  200622:	00840993          	addi	s3,s0,8
  200626:	854a                	mv	a0,s2
  200628:	85d2                	mv	a1,s4
  20062a:	86d6                	mv	a3,s5
  20062c:	876a                	mv	a4,s10
  20062e:	87e6                	mv	a5,s9
  200630:	654000ef          	jal	200c84 <_ftoa>
  200634:	a6c9                	j	2009f6 <_vsnprintf+0x67a>
  200636:	080f6f13          	ori	t5,t5,128
  20063a:	0b85                	addi	s7,s7,1
  20063c:	bf05                	j	20056c <_vsnprintf+0x1f0>
  20063e:	100f6f13          	ori	t5,t5,256
  200642:	0b85                	addi	s7,s7,1
  200644:	b725                	j	20056c <_vsnprintf+0x1f0>
  200646:	79c2                	ld	s3,48(sp)
  200648:	0009b503          	ld	a0,0(s3)
  20064c:	021f6f13          	ori	t5,t5,33
  200650:	e119                	bnez	a0,200656 <_vsnprintf+0x2da>
  200652:	feff7f13          	andi	t5,t5,-17
  200656:	03810813          	addi	a6,sp,56
  20065a:	48f9                	li	a7,30
  20065c:	443d                	li	s0,15
  20065e:	34051a63          	bnez	a0,2009b2 <_vsnprintf+0x636>
  200662:	400f7593          	andi	a1,t5,1024
  200666:	34058663          	beqz	a1,2009b2 <_vsnprintf+0x636>
  20066a:	4781                	li	a5,0
  20066c:	ae95                	j	2009e0 <_vsnprintf+0x664>
  20066e:	00160b13          	addi	s6,a2,1
  200672:	a029                	j	20067c <_vsnprintf+0x300>
  200674:	00160b13          	addi	s6,a2,1
  200678:	02500513          	li	a0,37
  20067c:	85d2                	mv	a1,s4
  20067e:	86d6                	mv	a3,s5
  200680:	9902                	jalr	s2
  200682:	02500d13          	li	s10,37
  200686:	79c2                	ld	s3,48(sp)
  200688:	a939                	j	200aa6 <_vsnprintf+0x72a>
  20068a:	4589                	li	a1,2
  20068c:	ff3f7f13          	andi	t5,t5,-13
  200690:	88ae                	mv	a7,a1
  200692:	400f7593          	andi	a1,t5,1024
  200696:	c199                	beqz	a1,20069c <_vsnprintf+0x320>
  200698:	ffef7f13          	andi	t5,t5,-2
  20069c:	79c2                	ld	s3,48(sp)
  20069e:	200f7593          	andi	a1,t5,512
  2006a2:	06900693          	li	a3,105
  2006a6:	03810313          	addi	t1,sp,56
  2006aa:	43f9                	li	t2,30
  2006ac:	00d50663          	beq	a0,a3,2006b8 <_vsnprintf+0x33c>
  2006b0:	06400693          	li	a3,100
  2006b4:	08d51963          	bne	a0,a3,200746 <_vsnprintf+0x3ca>
  2006b8:	e595                	bnez	a1,2006e4 <_vsnprintf+0x368>
  2006ba:	100f7513          	andi	a0,t5,256
  2006be:	e945                	bnez	a0,20076e <_vsnprintf+0x3f2>
  2006c0:	040f7513          	andi	a0,t5,64
  2006c4:	22051163          	bnez	a0,2008e6 <_vsnprintf+0x56a>
  2006c8:	0009a803          	lw	a6,0(s3)
  2006cc:	080f7513          	andi	a0,t5,128
  2006d0:	38051f63          	bnez	a0,200a6e <_vsnprintf+0x6f2>
  2006d4:	20081d63          	bnez	a6,2008ee <_vsnprintf+0x572>
  2006d8:	ceff7f13          	andi	t5,t5,-785
  2006dc:	42a9                	li	t0,10
  2006de:	20080b63          	beqz	a6,2008f4 <_vsnprintf+0x578>
  2006e2:	a405                	j	200902 <_vsnprintf+0x586>
  2006e4:	0009b803          	ld	a6,0(s3)
  2006e8:	00081463          	bnez	a6,2006f0 <_vsnprintf+0x374>
  2006ec:	feff7f13          	andi	t5,t5,-17
  2006f0:	42a9                	li	t0,10
  2006f2:	00081563          	bnez	a6,2006fc <_vsnprintf+0x380>
  2006f6:	400f7513          	andi	a0,t5,1024
  2006fa:	e559                	bnez	a0,200788 <_vsnprintf+0x40c>
  2006fc:	4481                	li	s1,0
  2006fe:	43f85513          	srai	a0,a6,0x3f
  200702:	00a84433          	xor	s0,a6,a0
  200706:	8c09                	sub	s0,s0,a0
  200708:	020f7513          	andi	a0,t5,32
  20070c:	06154513          	xori	a0,a0,97
  200710:	0f650513          	addi	a0,a0,246
  200714:	86a2                	mv	a3,s0
  200716:	03145433          	divu	s0,s0,a7
  20071a:	03140733          	mul	a4,s0,a7
  20071e:	40e68733          	sub	a4,a3,a4
  200722:	00576463          	bltu	a4,t0,20072a <_vsnprintf+0x3ae>
  200726:	972a                	add	a4,a4,a0
  200728:	a019                	j	20072e <_vsnprintf+0x3b2>
  20072a:	03076713          	ori	a4,a4,48
  20072e:	00148793          	addi	a5,s1,1
  200732:	009305b3          	add	a1,t1,s1
  200736:	00e58023          	sb	a4,0(a1)
  20073a:	0493e863          	bltu	t2,s1,20078a <_vsnprintf+0x40e>
  20073e:	84be                	mv	s1,a5
  200740:	fd16fae3          	bgeu	a3,a7,200714 <_vsnprintf+0x398>
  200744:	a099                	j	20078a <_vsnprintf+0x40e>
  200746:	e9a9                	bnez	a1,200798 <_vsnprintf+0x41c>
  200748:	100f7513          	andi	a0,t5,256
  20074c:	20051263          	bnez	a0,200950 <_vsnprintf+0x5d4>
  200750:	040f7513          	andi	a0,t5,64
  200754:	32051363          	bnez	a0,200a7a <_vsnprintf+0x6fe>
  200758:	0009a583          	lw	a1,0(s3)
  20075c:	080f7513          	andi	a0,t5,128
  200760:	24050363          	beqz	a0,2009a6 <_vsnprintf+0x62a>
  200764:	15c2                	slli	a1,a1,0x30
  200766:	91c1                	srli	a1,a1,0x30
  200768:	30059c63          	bnez	a1,200a80 <_vsnprintf+0x704>
  20076c:	ac35                	j	2009a8 <_vsnprintf+0x62c>
  20076e:	0009b803          	ld	a6,0(s3)
  200772:	00081463          	bnez	a6,20077a <_vsnprintf+0x3fe>
  200776:	deff7f13          	andi	t5,t5,-529
  20077a:	42a9                	li	t0,10
  20077c:	12081063          	bnez	a6,20089c <_vsnprintf+0x520>
  200780:	400f7513          	andi	a0,t5,1024
  200784:	10050c63          	beqz	a0,20089c <_vsnprintf+0x520>
  200788:	4781                	li	a5,0
  20078a:	03f85813          	srli	a6,a6,0x3f
  20078e:	1838                	addi	a4,sp,56
  200790:	854a                	mv	a0,s2
  200792:	85d2                	mv	a1,s4
  200794:	86d6                	mv	a3,s5
  200796:	a601                	j	200a96 <_vsnprintf+0x71a>
  200798:	0009b503          	ld	a0,0(s3)
  20079c:	e119                	bnez	a0,2007a2 <_vsnprintf+0x426>
  20079e:	feff7f13          	andi	t5,t5,-17
  2007a2:	4829                	li	a6,10
  2007a4:	e509                	bnez	a0,2007ae <_vsnprintf+0x432>
  2007a6:	400f7593          	andi	a1,t5,1024
  2007aa:	2e059063          	bnez	a1,200a8a <_vsnprintf+0x70e>
  2007ae:	4481                	li	s1,0
  2007b0:	020f7693          	andi	a3,t5,32
  2007b4:	0616c693          	xori	a3,a3,97
  2007b8:	0f668413          	addi	s0,a3,246
  2007bc:	872a                	mv	a4,a0
  2007be:	03155533          	divu	a0,a0,a7
  2007c2:	031506b3          	mul	a3,a0,a7
  2007c6:	40d706b3          	sub	a3,a4,a3
  2007ca:	0106e463          	bltu	a3,a6,2007d2 <_vsnprintf+0x456>
  2007ce:	96a2                	add	a3,a3,s0
  2007d0:	a019                	j	2007d6 <_vsnprintf+0x45a>
  2007d2:	0306e693          	ori	a3,a3,48
  2007d6:	00148793          	addi	a5,s1,1
  2007da:	009305b3          	add	a1,t1,s1
  2007de:	00d58023          	sb	a3,0(a1)
  2007e2:	2a93e563          	bltu	t2,s1,200a8c <_vsnprintf+0x710>
  2007e6:	84be                	mv	s1,a5
  2007e8:	fd177ae3          	bgeu	a4,a7,2007bc <_vsnprintf+0x440>
  2007ec:	a445                	j	200a8c <_vsnprintf+0x710>
  2007ee:	7542                	ld	a0,48(sp)
  2007f0:	6100                	ld	s0,0(a0)
  2007f2:	01a035b3          	snez	a1,s10
  2007f6:	020d1513          	slli	a0,s10,0x20
  2007fa:	02055693          	srli	a3,a0,0x20
  2007fe:	00044503          	lbu	a0,0(s0)
  200802:	15fd                	addi	a1,a1,-1
  200804:	8ecd                	or	a3,a3,a1
  200806:	85a2                	mv	a1,s0
  200808:	ce81                	beqz	a3,200820 <_vsnprintf+0x4a4>
  20080a:	85a2                	mv	a1,s0
  20080c:	c911                	beqz	a0,200820 <_vsnprintf+0x4a4>
  20080e:	16fd                	addi	a3,a3,-1
  200810:	85a2                	mv	a1,s0
  200812:	0015c783          	lbu	a5,1(a1)
  200816:	0585                	addi	a1,a1,1
  200818:	c781                	beqz	a5,200820 <_vsnprintf+0x4a4>
  20081a:	8736                	mv	a4,a3
  20081c:	16fd                	addi	a3,a3,-1
  20081e:	fb75                	bnez	a4,200812 <_vsnprintf+0x496>
  200820:	408586bb          	subw	a3,a1,s0
  200824:	01a6ee63          	bltu	a3,s10,200840 <_vsnprintf+0x4c4>
  200828:	86ea                	mv	a3,s10
  20082a:	400f7493          	andi	s1,t5,1024
  20082e:	ec81                	bnez	s1,200846 <_vsnprintf+0x4ca>
  200830:	408586bb          	subw	a3,a1,s0
  200834:	002f7593          	andi	a1,t5,2
  200838:	f02e                	sd	a1,32(sp)
  20083a:	2c059763          	bnez	a1,200b08 <_vsnprintf+0x78c>
  20083e:	a809                	j	200850 <_vsnprintf+0x4d4>
  200840:	400f7493          	andi	s1,t5,1024
  200844:	d4f5                	beqz	s1,200830 <_vsnprintf+0x4b4>
  200846:	002f7593          	andi	a1,t5,2
  20084a:	f02e                	sd	a1,32(sp)
  20084c:	2a059e63          	bnez	a1,200b08 <_vsnprintf+0x78c>
  200850:	2b96fb63          	bgeu	a3,s9,200b06 <_vsnprintf+0x78a>
  200854:	e426                	sd	s1,8(sp)
  200856:	e822                	sd	s0,16(sp)
  200858:	001c851b          	addiw	a0,s9,1
  20085c:	ec2a                	sd	a0,24(sp)
  20085e:	fff6c513          	not	a0,a3
  200862:	9566                	add	a0,a0,s9
  200864:	1502                	slli	a0,a0,0x20
  200866:	9101                	srli	a0,a0,0x20
  200868:	99da                	add	s3,s3,s6
  20086a:	954e                	add	a0,a0,s3
  20086c:	00150413          	addi	s0,a0,1
  200870:	00160493          	addi	s1,a2,1
  200874:	02000513          	li	a0,32
  200878:	85d2                	mv	a1,s4
  20087a:	86d6                	mv	a3,s5
  20087c:	9902                	jalr	s2
  20087e:	8626                	mv	a2,s1
  200880:	fe8498e3          	bne	s1,s0,200870 <_vsnprintf+0x4f4>
  200884:	6442                	ld	s0,16(sp)
  200886:	00044503          	lbu	a0,0(s0)
  20088a:	79c2                	ld	s3,48(sp)
  20088c:	64a2                	ld	s1,8(sp)
  20088e:	acbd                	j	200b0c <_vsnprintf+0x790>
  200890:	002f7493          	andi	s1,t5,2
  200894:	16048363          	beqz	s1,2009fa <_vsnprintf+0x67e>
  200898:	4d05                	li	s10,1
  20089a:	aa59                	j	200a30 <_vsnprintf+0x6b4>
  20089c:	4481                	li	s1,0
  20089e:	43f85513          	srai	a0,a6,0x3f
  2008a2:	00a84433          	xor	s0,a6,a0
  2008a6:	8c09                	sub	s0,s0,a0
  2008a8:	020f7513          	andi	a0,t5,32
  2008ac:	06154513          	xori	a0,a0,97
  2008b0:	0f650513          	addi	a0,a0,246
  2008b4:	86a2                	mv	a3,s0
  2008b6:	03145433          	divu	s0,s0,a7
  2008ba:	03140733          	mul	a4,s0,a7
  2008be:	40e68733          	sub	a4,a3,a4
  2008c2:	00576463          	bltu	a4,t0,2008ca <_vsnprintf+0x54e>
  2008c6:	972a                	add	a4,a4,a0
  2008c8:	a019                	j	2008ce <_vsnprintf+0x552>
  2008ca:	03076713          	ori	a4,a4,48
  2008ce:	00148793          	addi	a5,s1,1
  2008d2:	009305b3          	add	a1,t1,s1
  2008d6:	00e58023          	sb	a4,0(a1)
  2008da:	ea93e8e3          	bltu	t2,s1,20078a <_vsnprintf+0x40e>
  2008de:	84be                	mv	s1,a5
  2008e0:	fd16fae3          	bgeu	a3,a7,2008b4 <_vsnprintf+0x538>
  2008e4:	b55d                	j	20078a <_vsnprintf+0x40e>
  2008e6:	0009c803          	lbu	a6,0(s3)
  2008ea:	de0807e3          	beqz	a6,2006d8 <_vsnprintf+0x35c>
  2008ee:	42a9                	li	t0,10
  2008f0:	00081963          	bnez	a6,200902 <_vsnprintf+0x586>
  2008f4:	400f7513          	andi	a0,t5,1024
  2008f8:	c509                	beqz	a0,200902 <_vsnprintf+0x586>
  2008fa:	4781                	li	a5,0
  2008fc:	01f8581b          	srliw	a6,a6,0x1f
  200900:	b579                	j	20078e <_vsnprintf+0x412>
  200902:	4481                	li	s1,0
  200904:	41f8551b          	sraiw	a0,a6,0x1f
  200908:	00a84433          	xor	s0,a6,a0
  20090c:	9c09                	subw	s0,s0,a0
  20090e:	020f7513          	andi	a0,t5,32
  200912:	06154513          	xori	a0,a0,97
  200916:	0f650513          	addi	a0,a0,246
  20091a:	86a2                	mv	a3,s0
  20091c:	03145433          	divu	s0,s0,a7
  200920:	03140733          	mul	a4,s0,a7
  200924:	40e68733          	sub	a4,a3,a4
  200928:	00576463          	bltu	a4,t0,200930 <_vsnprintf+0x5b4>
  20092c:	972a                	add	a4,a4,a0
  20092e:	a019                	j	200934 <_vsnprintf+0x5b8>
  200930:	03076713          	ori	a4,a4,48
  200934:	00148793          	addi	a5,s1,1
  200938:	009305b3          	add	a1,t1,s1
  20093c:	00e58023          	sb	a4,0(a1)
  200940:	0093e563          	bltu	t2,s1,20094a <_vsnprintf+0x5ce>
  200944:	84be                	mv	s1,a5
  200946:	fd16fae3          	bgeu	a3,a7,20091a <_vsnprintf+0x59e>
  20094a:	01f8581b          	srliw	a6,a6,0x1f
  20094e:	b581                	j	20078e <_vsnprintf+0x412>
  200950:	0009b503          	ld	a0,0(s3)
  200954:	e119                	bnez	a0,20095a <_vsnprintf+0x5de>
  200956:	deff7f13          	andi	t5,t5,-529
  20095a:	4829                	li	a6,10
  20095c:	e509                	bnez	a0,200966 <_vsnprintf+0x5ea>
  20095e:	400f7593          	andi	a1,t5,1024
  200962:	12059463          	bnez	a1,200a8a <_vsnprintf+0x70e>
  200966:	4481                	li	s1,0
  200968:	020f7693          	andi	a3,t5,32
  20096c:	0616c693          	xori	a3,a3,97
  200970:	0f668413          	addi	s0,a3,246
  200974:	872a                	mv	a4,a0
  200976:	03155533          	divu	a0,a0,a7
  20097a:	031506b3          	mul	a3,a0,a7
  20097e:	40d706b3          	sub	a3,a4,a3
  200982:	0106e463          	bltu	a3,a6,20098a <_vsnprintf+0x60e>
  200986:	96a2                	add	a3,a3,s0
  200988:	a019                	j	20098e <_vsnprintf+0x612>
  20098a:	0306e693          	ori	a3,a3,48
  20098e:	00148793          	addi	a5,s1,1
  200992:	009305b3          	add	a1,t1,s1
  200996:	00d58023          	sb	a3,0(a1)
  20099a:	0e93e963          	bltu	t2,s1,200a8c <_vsnprintf+0x710>
  20099e:	84be                	mv	s1,a5
  2009a0:	fd177ae3          	bgeu	a4,a7,200974 <_vsnprintf+0x5f8>
  2009a4:	a0e5                	j	200a8c <_vsnprintf+0x710>
  2009a6:	ede9                	bnez	a1,200a80 <_vsnprintf+0x704>
  2009a8:	ceff7f13          	andi	t5,t5,-785
  2009ac:	4829                	li	a6,10
  2009ae:	c9f9                	beqz	a1,200a84 <_vsnprintf+0x708>
  2009b0:	aa01                	j	200ac0 <_vsnprintf+0x744>
  2009b2:	4581                	li	a1,0
  2009b4:	86aa                	mv	a3,a0
  2009b6:	893d                	andi	a0,a0,15
  2009b8:	00956563          	bltu	a0,s1,2009c2 <_vsnprintf+0x646>
  2009bc:	03750513          	addi	a0,a0,55
  2009c0:	a019                	j	2009c6 <_vsnprintf+0x64a>
  2009c2:	03050513          	addi	a0,a0,48
  2009c6:	00158793          	addi	a5,a1,1
  2009ca:	00b80733          	add	a4,a6,a1
  2009ce:	00a70023          	sb	a0,0(a4)
  2009d2:	00b8e763          	bltu	a7,a1,2009e0 <_vsnprintf+0x664>
  2009d6:	0046d513          	srli	a0,a3,0x4
  2009da:	85be                	mv	a1,a5
  2009dc:	fcd46ce3          	bltu	s0,a3,2009b4 <_vsnprintf+0x638>
  2009e0:	09a1                	addi	s3,s3,8
  2009e2:	1838                	addi	a4,sp,56
  2009e4:	48c1                	li	a7,16
  2009e6:	4ec1                	li	t4,16
  2009e8:	854a                	mv	a0,s2
  2009ea:	85d2                	mv	a1,s4
  2009ec:	86d6                	mv	a3,s5
  2009ee:	4801                	li	a6,0
  2009f0:	8e6a                	mv	t3,s10
  2009f2:	2e5000ef          	jal	2014d6 <_ntoa_format>
  2009f6:	8b2a                	mv	s6,a0
  2009f8:	a06d                	j	200aa2 <_vsnprintf+0x726>
  2009fa:	4d09                	li	s10,2
  2009fc:	03acea63          	bltu	s9,s10,200a30 <_vsnprintf+0x6b4>
  200a00:	f026                	sd	s1,32(sp)
  200a02:	001c8d1b          	addiw	s10,s9,1
  200a06:	ffec8513          	addi	a0,s9,-2
  200a0a:	1502                	slli	a0,a0,0x20
  200a0c:	9101                	srli	a0,a0,0x20
  200a0e:	99da                	add	s3,s3,s6
  200a10:	954e                	add	a0,a0,s3
  200a12:	00150413          	addi	s0,a0,1
  200a16:	00160493          	addi	s1,a2,1
  200a1a:	02000513          	li	a0,32
  200a1e:	85d2                	mv	a1,s4
  200a20:	86d6                	mv	a3,s5
  200a22:	9902                	jalr	s2
  200a24:	8626                	mv	a2,s1
  200a26:	fe8498e3          	bne	s1,s0,200a16 <_vsnprintf+0x69a>
  200a2a:	79c2                	ld	s3,48(sp)
  200a2c:	7482                	ld	s1,32(sp)
  200a2e:	a011                	j	200a32 <_vsnprintf+0x6b6>
  200a30:	79c2                	ld	s3,48(sp)
  200a32:	0009c503          	lbu	a0,0(s3)
  200a36:	09a1                	addi	s3,s3,8
  200a38:	00160b13          	addi	s6,a2,1
  200a3c:	85d2                	mv	a1,s4
  200a3e:	8432                	mv	s0,a2
  200a40:	86d6                	mv	a3,s5
  200a42:	9902                	jalr	s2
  200a44:	ccb9                	beqz	s1,200aa2 <_vsnprintf+0x726>
  200a46:	059d7e63          	bgeu	s10,s9,200aa2 <_vsnprintf+0x726>
  200a4a:	fffd4513          	not	a0,s10
  200a4e:	9566                	add	a0,a0,s9
  200a50:	1502                	slli	a0,a0,0x20
  200a52:	9101                	srli	a0,a0,0x20
  200a54:	9522                	add	a0,a0,s0
  200a56:	00250413          	addi	s0,a0,2
  200a5a:	865a                	mv	a2,s6
  200a5c:	0b05                	addi	s6,s6,1
  200a5e:	02000513          	li	a0,32
  200a62:	85d2                	mv	a1,s4
  200a64:	86d6                	mv	a3,s5
  200a66:	9902                	jalr	s2
  200a68:	fe8b19e3          	bne	s6,s0,200a5a <_vsnprintf+0x6de>
  200a6c:	a81d                	j	200aa2 <_vsnprintf+0x726>
  200a6e:	1842                	slli	a6,a6,0x30
  200a70:	43085813          	srai	a6,a6,0x30
  200a74:	e6081de3          	bnez	a6,2008ee <_vsnprintf+0x572>
  200a78:	b185                	j	2006d8 <_vsnprintf+0x35c>
  200a7a:	0009c583          	lbu	a1,0(s3)
  200a7e:	d58d                	beqz	a1,2009a8 <_vsnprintf+0x62c>
  200a80:	4829                	li	a6,10
  200a82:	ed9d                	bnez	a1,200ac0 <_vsnprintf+0x744>
  200a84:	400f7513          	andi	a0,t5,1024
  200a88:	cd05                	beqz	a0,200ac0 <_vsnprintf+0x744>
  200a8a:	4781                	li	a5,0
  200a8c:	1838                	addi	a4,sp,56
  200a8e:	854a                	mv	a0,s2
  200a90:	85d2                	mv	a1,s4
  200a92:	86d6                	mv	a3,s5
  200a94:	4801                	li	a6,0
  200a96:	8e6a                	mv	t3,s10
  200a98:	8ee6                	mv	t4,s9
  200a9a:	23d000ef          	jal	2014d6 <_ntoa_format>
  200a9e:	8b2a                	mv	s6,a0
  200aa0:	09a1                	addi	s3,s3,8
  200aa2:	02500d13          	li	s10,37
  200aa6:	f84e                	sd	s3,48(sp)
  200aa8:	001b8c93          	addi	s9,s7,1
  200aac:	4981                	li	s3,0
  200aae:	002c8413          	addi	s0,s9,2
  200ab2:	8bda                	mv	s7,s6
  200ab4:	865a                	mv	a2,s6
  200ab6:	000cc503          	lbu	a0,0(s9)
  200aba:	90051fe3          	bnez	a0,2003d8 <_vsnprintf+0x5c>
  200abe:	a075                	j	200b6a <_vsnprintf+0x7ee>
  200ac0:	4481                	li	s1,0
  200ac2:	1582                	slli	a1,a1,0x20
  200ac4:	020f7713          	andi	a4,t5,32
  200ac8:	0205d693          	srli	a3,a1,0x20
  200acc:	06174593          	xori	a1,a4,97
  200ad0:	0f658413          	addi	s0,a1,246
  200ad4:	8736                	mv	a4,a3
  200ad6:	0316d6b3          	divu	a3,a3,a7
  200ada:	031685b3          	mul	a1,a3,a7
  200ade:	40b705b3          	sub	a1,a4,a1
  200ae2:	0105e463          	bltu	a1,a6,200aea <_vsnprintf+0x76e>
  200ae6:	95a2                	add	a1,a1,s0
  200ae8:	a019                	j	200aee <_vsnprintf+0x772>
  200aea:	0305e593          	ori	a1,a1,48
  200aee:	00148793          	addi	a5,s1,1
  200af2:	00930533          	add	a0,t1,s1
  200af6:	00b50023          	sb	a1,0(a0)
  200afa:	f893e9e3          	bltu	t2,s1,200a8c <_vsnprintf+0x710>
  200afe:	84be                	mv	s1,a5
  200b00:	fd177ae3          	bgeu	a4,a7,200ad4 <_vsnprintf+0x758>
  200b04:	b761                	j	200a8c <_vsnprintf+0x710>
  200b06:	2685                	addiw	a3,a3,1
  200b08:	ec36                	sd	a3,24(sp)
  200b0a:	79c2                	ld	s3,48(sp)
  200b0c:	c505                	beqz	a0,200b34 <_vsnprintf+0x7b8>
  200b0e:	0405                	addi	s0,s0,1
  200b10:	a829                	j	200b2a <_vsnprintf+0x7ae>
  200b12:	00160b13          	addi	s6,a2,1
  200b16:	0ff57513          	zext.b	a0,a0
  200b1a:	85d2                	mv	a1,s4
  200b1c:	86d6                	mv	a3,s5
  200b1e:	9902                	jalr	s2
  200b20:	00044503          	lbu	a0,0(s0)
  200b24:	0405                	addi	s0,s0,1
  200b26:	865a                	mv	a2,s6
  200b28:	c519                	beqz	a0,200b36 <_vsnprintf+0x7ba>
  200b2a:	d4e5                	beqz	s1,200b12 <_vsnprintf+0x796>
  200b2c:	000d0463          	beqz	s10,200b34 <_vsnprintf+0x7b8>
  200b30:	3d7d                	addiw	s10,s10,-1
  200b32:	b7c5                	j	200b12 <_vsnprintf+0x796>
  200b34:	8b32                	mv	s6,a2
  200b36:	09a1                	addi	s3,s3,8
  200b38:	7502                	ld	a0,32(sp)
  200b3a:	d525                	beqz	a0,200aa2 <_vsnprintf+0x726>
  200b3c:	02500d13          	li	s10,37
  200b40:	6562                	ld	a0,24(sp)
  200b42:	f79572e3          	bgeu	a0,s9,200aa6 <_vsnprintf+0x72a>
  200b46:	fff54513          	not	a0,a0
  200b4a:	9566                	add	a0,a0,s9
  200b4c:	1502                	slli	a0,a0,0x20
  200b4e:	9101                	srli	a0,a0,0x20
  200b50:	955a                	add	a0,a0,s6
  200b52:	00150413          	addi	s0,a0,1
  200b56:	865a                	mv	a2,s6
  200b58:	0b05                	addi	s6,s6,1
  200b5a:	02000513          	li	a0,32
  200b5e:	85d2                	mv	a1,s4
  200b60:	86d6                	mv	a3,s5
  200b62:	9902                	jalr	s2
  200b64:	fe8b19e3          	bne	s6,s0,200b56 <_vsnprintf+0x7da>
  200b68:	bf3d                	j	200aa6 <_vsnprintf+0x72a>
  200b6a:	01566463          	bltu	a2,s5,200b72 <_vsnprintf+0x7f6>
  200b6e:	fffa8613          	addi	a2,s5,-1
  200b72:	4501                	li	a0,0
  200b74:	85d2                	mv	a1,s4
  200b76:	86d6                	mv	a3,s5
  200b78:	9902                	jalr	s2
  200b7a:	000b851b          	sext.w	a0,s7
  200b7e:	70ea                	ld	ra,184(sp)
  200b80:	744a                	ld	s0,176(sp)
  200b82:	74aa                	ld	s1,168(sp)
  200b84:	790a                	ld	s2,160(sp)
  200b86:	69ea                	ld	s3,152(sp)
  200b88:	6a4a                	ld	s4,144(sp)
  200b8a:	6aaa                	ld	s5,136(sp)
  200b8c:	6b0a                	ld	s6,128(sp)
  200b8e:	7be6                	ld	s7,120(sp)
  200b90:	7c46                	ld	s8,112(sp)
  200b92:	7ca6                	ld	s9,104(sp)
  200b94:	7d06                	ld	s10,96(sp)
  200b96:	6de6                	ld	s11,88(sp)
  200b98:	6129                	addi	sp,sp,192
  200b9a:	8082                	ret

0000000000200b9c <_out_char>:
  200b9c:	c119                	beqz	a0,200ba2 <_out_char+0x6>
  200b9e:	42d0006f          	j	2017ca <_sddf_putchar>
  200ba2:	8082                	ret

0000000000200ba4 <sddf_sprintf_>:
  200ba4:	7139                	addi	sp,sp,-64
  200ba6:	e406                	sd	ra,8(sp)
  200ba8:	82ae                	mv	t0,a1
  200baa:	85aa                	mv	a1,a0
  200bac:	f842                	sd	a6,48(sp)
  200bae:	fc46                	sd	a7,56(sp)
  200bb0:	e832                	sd	a2,16(sp)
  200bb2:	ec36                	sd	a3,24(sp)
  200bb4:	f03a                	sd	a4,32(sp)
  200bb6:	f43e                	sd	a5,40(sp)
  200bb8:	0808                	addi	a0,sp,16
  200bba:	e02a                	sd	a0,0(sp)
  200bbc:	00201537          	lui	a0,0x201
  200bc0:	bd450513          	addi	a0,a0,-1068 # 200bd4 <_out_buffer>
  200bc4:	567d                	li	a2,-1
  200bc6:	0818                	addi	a4,sp,16
  200bc8:	8696                	mv	a3,t0
  200bca:	fb2ff0ef          	jal	20037c <_vsnprintf>
  200bce:	60a2                	ld	ra,8(sp)
  200bd0:	6121                	addi	sp,sp,64
  200bd2:	8082                	ret

0000000000200bd4 <_out_buffer>:
  200bd4:	00d67563          	bgeu	a2,a3,200bde <_out_buffer+0xa>
  200bd8:	95b2                	add	a1,a1,a2
  200bda:	00a58023          	sb	a0,0(a1)
  200bde:	8082                	ret

0000000000200be0 <sddf_snprintf_>:
  200be0:	7139                	addi	sp,sp,-64
  200be2:	e406                	sd	ra,8(sp)
  200be4:	82b2                	mv	t0,a2
  200be6:	862e                	mv	a2,a1
  200be8:	85aa                	mv	a1,a0
  200bea:	fc46                	sd	a7,56(sp)
  200bec:	ec36                	sd	a3,24(sp)
  200bee:	f03a                	sd	a4,32(sp)
  200bf0:	f43e                	sd	a5,40(sp)
  200bf2:	f842                	sd	a6,48(sp)
  200bf4:	0828                	addi	a0,sp,24
  200bf6:	e02a                	sd	a0,0(sp)
  200bf8:	00201537          	lui	a0,0x201
  200bfc:	bd450513          	addi	a0,a0,-1068 # 200bd4 <_out_buffer>
  200c00:	0838                	addi	a4,sp,24
  200c02:	8696                	mv	a3,t0
  200c04:	f78ff0ef          	jal	20037c <_vsnprintf>
  200c08:	60a2                	ld	ra,8(sp)
  200c0a:	6121                	addi	sp,sp,64
  200c0c:	8082                	ret

0000000000200c0e <sddf_vprintf_>:
  200c0e:	1141                	addi	sp,sp,-16
  200c10:	e406                	sd	ra,8(sp)
  200c12:	872e                	mv	a4,a1
  200c14:	86aa                	mv	a3,a0
  200c16:	00201537          	lui	a0,0x201
  200c1a:	b9c50513          	addi	a0,a0,-1124 # 200b9c <_out_char>
  200c1e:	00710593          	addi	a1,sp,7
  200c22:	567d                	li	a2,-1
  200c24:	f58ff0ef          	jal	20037c <_vsnprintf>
  200c28:	60a2                	ld	ra,8(sp)
  200c2a:	0141                	addi	sp,sp,16
  200c2c:	8082                	ret

0000000000200c2e <sddf_vsnprintf_>:
  200c2e:	8736                	mv	a4,a3
  200c30:	86b2                	mv	a3,a2
  200c32:	862e                	mv	a2,a1
  200c34:	002015b7          	lui	a1,0x201
  200c38:	bd458593          	addi	a1,a1,-1068 # 200bd4 <_out_buffer>
  200c3c:	87aa                	mv	a5,a0
  200c3e:	852e                	mv	a0,a1
  200c40:	85be                	mv	a1,a5
  200c42:	f3aff06f          	j	20037c <_vsnprintf>

0000000000200c46 <sddf_fctprintf>:
  200c46:	715d                	addi	sp,sp,-80
  200c48:	ec06                	sd	ra,24(sp)
  200c4a:	82b2                	mv	t0,a2
  200c4c:	e4c6                	sd	a7,72(sp)
  200c4e:	f436                	sd	a3,40(sp)
  200c50:	f83a                	sd	a4,48(sp)
  200c52:	fc3e                	sd	a5,56(sp)
  200c54:	e0c2                	sd	a6,64(sp)
  200c56:	1030                	addi	a2,sp,40
  200c58:	e832                	sd	a2,16(sp)
  200c5a:	e02a                	sd	a0,0(sp)
  200c5c:	e42e                	sd	a1,8(sp)
  200c5e:	00201537          	lui	a0,0x201
  200c62:	c7850513          	addi	a0,a0,-904 # 200c78 <_out_fct>
  200c66:	858a                	mv	a1,sp
  200c68:	567d                	li	a2,-1
  200c6a:	1038                	addi	a4,sp,40
  200c6c:	8696                	mv	a3,t0
  200c6e:	f0eff0ef          	jal	20037c <_vsnprintf>
  200c72:	60e2                	ld	ra,24(sp)
  200c74:	6161                	addi	sp,sp,80
  200c76:	8082                	ret

0000000000200c78 <_out_fct>:
  200c78:	c501                	beqz	a0,200c80 <_out_fct+0x8>
  200c7a:	619c                	ld	a5,0(a1)
  200c7c:	658c                	ld	a1,8(a1)
  200c7e:	8782                	jr	a5
  200c80:	8082                	ret

0000000000200c82 <_out_null>:
  200c82:	8082                	ret

0000000000200c84 <_ftoa>:
  200c84:	7119                	addi	sp,sp,-128
  200c86:	fc86                	sd	ra,120(sp)
  200c88:	f8a2                	sd	s0,112(sp)
  200c8a:	f4a6                	sd	s1,104(sp)
  200c8c:	f0ca                	sd	s2,96(sp)
  200c8e:	ecce                	sd	s3,88(sp)
  200c90:	e8d2                	sd	s4,80(sp)
  200c92:	e4d6                	sd	s5,72(sp)
  200c94:	e0da                	sd	s6,64(sp)
  200c96:	fc5e                	sd	s7,56(sp)
  200c98:	f862                	sd	s8,48(sp)
  200c9a:	f466                	sd	s9,40(sp)
  200c9c:	f06a                	sd	s10,32(sp)
  200c9e:	8a3e                	mv	s4,a5
  200ca0:	8936                	mv	s2,a3
  200ca2:	89b2                	mv	s3,a2
  200ca4:	8aae                	mv	s5,a1
  200ca6:	a2a525d3          	feq.d	a1,fa0,fa0
  200caa:	8b2a                	mv	s6,a0
  200cac:	4a058c63          	beqz	a1,201164 <_ftoa+0x4e0>
  200cb0:	00202537          	lui	a0,0x202
  200cb4:	31053787          	fld	fa5,784(a0) # 202310 <_text_end+0x3e8>
  200cb8:	a2f51553          	flt.d	a0,fa0,fa5
  200cbc:	c545                	beqz	a0,200d64 <_ftoa+0xe0>
  200cbe:	00387513          	andi	a0,a6,3
  200cc2:	00287c13          	andi	s8,a6,2
  200cc6:	844e                	mv	s0,s3
  200cc8:	e515                	bnez	a0,200cf4 <_ftoa+0x70>
  200cca:	4515                	li	a0,5
  200ccc:	844e                	mv	s0,s3
  200cce:	02aa6363          	bltu	s4,a0,200cf4 <_ftoa+0x70>
  200cd2:	020a1513          	slli	a0,s4,0x20
  200cd6:	9101                	srli	a0,a0,0x20
  200cd8:	954e                	add	a0,a0,s3
  200cda:	ffc50493          	addi	s1,a0,-4
  200cde:	864e                	mv	a2,s3
  200ce0:	00160413          	addi	s0,a2,1
  200ce4:	02000513          	li	a0,32
  200ce8:	85d6                	mv	a1,s5
  200cea:	86ca                	mv	a3,s2
  200cec:	9b02                	jalr	s6
  200cee:	8622                	mv	a2,s0
  200cf0:	fe9418e3          	bne	s0,s1,200ce0 <_ftoa+0x5c>
  200cf4:	00140493          	addi	s1,s0,1
  200cf8:	02d00513          	li	a0,45
  200cfc:	85d6                	mv	a1,s5
  200cfe:	8622                	mv	a2,s0
  200d00:	86ca                	mv	a3,s2
  200d02:	9b02                	jalr	s6
  200d04:	00240b93          	addi	s7,s0,2
  200d08:	06900513          	li	a0,105
  200d0c:	85d6                	mv	a1,s5
  200d0e:	8626                	mv	a2,s1
  200d10:	86ca                	mv	a3,s2
  200d12:	9b02                	jalr	s6
  200d14:	00340493          	addi	s1,s0,3
  200d18:	06e00513          	li	a0,110
  200d1c:	85d6                	mv	a1,s5
  200d1e:	865e                	mv	a2,s7
  200d20:	86ca                	mv	a3,s2
  200d22:	9b02                	jalr	s6
  200d24:	0411                	addi	s0,s0,4
  200d26:	06600513          	li	a0,102
  200d2a:	85d6                	mv	a1,s5
  200d2c:	8626                	mv	a2,s1
  200d2e:	86ca                	mv	a3,s2
  200d30:	9b02                	jalr	s6
  200d32:	400c0a63          	beqz	s8,201146 <_ftoa+0x4c2>
  200d36:	1a02                	slli	s4,s4,0x20
  200d38:	020a5a13          	srli	s4,s4,0x20
  200d3c:	8622                	mv	a2,s0
  200d3e:	41340533          	sub	a0,s0,s3
  200d42:	09457563          	bgeu	a0,s4,200dcc <_ftoa+0x148>
  200d46:	413004b3          	neg	s1,s3
  200d4a:	00160413          	addi	s0,a2,1
  200d4e:	02000513          	li	a0,32
  200d52:	85d6                	mv	a1,s5
  200d54:	86ca                	mv	a3,s2
  200d56:	9b02                	jalr	s6
  200d58:	00848533          	add	a0,s1,s0
  200d5c:	8622                	mv	a2,s0
  200d5e:	ff4566e3          	bltu	a0,s4,200d4a <_ftoa+0xc6>
  200d62:	a6d5                	j	201146 <_ftoa+0x4c2>
  200d64:	00202537          	lui	a0,0x202
  200d68:	30853787          	fld	fa5,776(a0) # 202308 <_text_end+0x3e0>
  200d6c:	a2a79553          	flt.d	a0,fa5,fa0
  200d70:	c115                	beqz	a0,200d94 <_ftoa+0x110>
  200d72:	00487513          	andi	a0,a6,4
  200d76:	00255413          	srli	s0,a0,0x2
  200d7a:	c939                	beqz	a0,200dd0 <_ftoa+0x14c>
  200d7c:	00202bb7          	lui	s7,0x202
  200d80:	f88b8b93          	addi	s7,s7,-120 # 201f88 <_text_end+0x60>
  200d84:	8c42                	mv	s8,a6
  200d86:	00387513          	andi	a0,a6,3
  200d8a:	00340493          	addi	s1,s0,3
  200d8e:	8d4e                	mv	s10,s3
  200d90:	ed3d                	bnez	a0,200e0e <_ftoa+0x18a>
  200d92:	a891                	j	200de6 <_ftoa+0x162>
  200d94:	00202537          	lui	a0,0x202
  200d98:	2e853787          	fld	fa5,744(a0) # 2022e8 <_text_end+0x3c0>
  200d9c:	22a52753          	fabs.d	fa4,fa0
  200da0:	a2e79553          	flt.d	a0,fa5,fa4
  200da4:	c161                	beqz	a0,200e64 <_ftoa+0x1e0>
  200da6:	855a                	mv	a0,s6
  200da8:	85d6                	mv	a1,s5
  200daa:	864e                	mv	a2,s3
  200dac:	86ca                	mv	a3,s2
  200dae:	87d2                	mv	a5,s4
  200db0:	70e6                	ld	ra,120(sp)
  200db2:	7446                	ld	s0,112(sp)
  200db4:	74a6                	ld	s1,104(sp)
  200db6:	7906                	ld	s2,96(sp)
  200db8:	69e6                	ld	s3,88(sp)
  200dba:	6a46                	ld	s4,80(sp)
  200dbc:	6aa6                	ld	s5,72(sp)
  200dbe:	6b06                	ld	s6,64(sp)
  200dc0:	7be2                	ld	s7,56(sp)
  200dc2:	7c42                	ld	s8,48(sp)
  200dc4:	7ca2                	ld	s9,40(sp)
  200dc6:	7d02                	ld	s10,32(sp)
  200dc8:	6109                	addi	sp,sp,128
  200dca:	a6f1                	j	201196 <_etoa>
  200dcc:	8432                	mv	s0,a2
  200dce:	aea5                	j	201146 <_ftoa+0x4c2>
  200dd0:	00202bb7          	lui	s7,0x202
  200dd4:	f9cb8b93          	addi	s7,s7,-100 # 201f9c <_text_end+0x74>
  200dd8:	8c42                	mv	s8,a6
  200dda:	00387513          	andi	a0,a6,3
  200dde:	00340493          	addi	s1,s0,3
  200de2:	8d4e                	mv	s10,s3
  200de4:	e50d                	bnez	a0,200e0e <_ftoa+0x18a>
  200de6:	020a1513          	slli	a0,s4,0x20
  200dea:	9101                	srli	a0,a0,0x20
  200dec:	8d4e                	mv	s10,s3
  200dee:	02a4f063          	bgeu	s1,a0,200e0e <_ftoa+0x18a>
  200df2:	40950cb3          	sub	s9,a0,s1
  200df6:	864e                	mv	a2,s3
  200df8:	00160d13          	addi	s10,a2,1
  200dfc:	02000513          	li	a0,32
  200e00:	85d6                	mv	a1,s5
  200e02:	86ca                	mv	a3,s2
  200e04:	9b02                	jalr	s6
  200e06:	1cfd                	addi	s9,s9,-1
  200e08:	866a                	mv	a2,s10
  200e0a:	fe0c97e3          	bnez	s9,200df8 <_ftoa+0x174>
  200e0e:	002c7c13          	andi	s8,s8,2
  200e12:	1bfd                	addi	s7,s7,-1
  200e14:	009b8533          	add	a0,s7,s1
  200e18:	00054503          	lbu	a0,0(a0)
  200e1c:	866a                	mv	a2,s10
  200e1e:	fff48413          	addi	s0,s1,-1
  200e22:	0d05                	addi	s10,s10,1
  200e24:	85d6                	mv	a1,s5
  200e26:	86ca                	mv	a3,s2
  200e28:	9b02                	jalr	s6
  200e2a:	84a2                	mv	s1,s0
  200e2c:	f465                	bnez	s0,200e14 <_ftoa+0x190>
  200e2e:	020c0963          	beqz	s8,200e60 <_ftoa+0x1dc>
  200e32:	1a02                	slli	s4,s4,0x20
  200e34:	020a5a13          	srli	s4,s4,0x20
  200e38:	413d0533          	sub	a0,s10,s3
  200e3c:	03457263          	bgeu	a0,s4,200e60 <_ftoa+0x1dc>
  200e40:	413009b3          	neg	s3,s3
  200e44:	001d0413          	addi	s0,s10,1
  200e48:	02000513          	li	a0,32
  200e4c:	85d6                	mv	a1,s5
  200e4e:	866a                	mv	a2,s10
  200e50:	86ca                	mv	a3,s2
  200e52:	9b02                	jalr	s6
  200e54:	00898533          	add	a0,s3,s0
  200e58:	8d22                	mv	s10,s0
  200e5a:	ff4565e3          	bltu	a0,s4,200e44 <_ftoa+0x1c0>
  200e5e:	a4e5                	j	201146 <_ftoa+0x4c2>
  200e60:	846a                	mv	s0,s10
  200e62:	a4d5                	j	201146 <_ftoa+0x4c2>
  200e64:	f20007d3          	fmv.d.x	fa5,zero
  200e68:	a2f518d3          	flt.d	a7,fa0,fa5
  200e6c:	00089d63          	bnez	a7,200e86 <_ftoa+0x202>
  200e70:	40087513          	andi	a0,a6,1024
  200e74:	86ba                	mv	a3,a4
  200e76:	ed11                	bnez	a0,200e92 <_ftoa+0x20e>
  200e78:	4699                	li	a3,6
  200e7a:	4529                	li	a0,10
  200e7c:	00a6fe63          	bgeu	a3,a0,200e98 <_ftoa+0x214>
  200e80:	4781                	li	a5,0
  200e82:	4585                	li	a1,1
  200e84:	a891                	j	200ed8 <_ftoa+0x254>
  200e86:	0aa7f553          	fsub.d	fa0,fa5,fa0
  200e8a:	40087513          	andi	a0,a6,1024
  200e8e:	86ba                	mv	a3,a4
  200e90:	d565                	beqz	a0,200e78 <_ftoa+0x1f4>
  200e92:	4529                	li	a0,10
  200e94:	fea6e6e3          	bltu	a3,a0,200e80 <_ftoa+0x1fc>
  200e98:	36d9                	addiw	a3,a3,-10
  200e9a:	457d                	li	a0,31
  200e9c:	85b6                	mv	a1,a3
  200e9e:	00a6e363          	bltu	a3,a0,200ea4 <_ftoa+0x220>
  200ea2:	45fd                	li	a1,31
  200ea4:	02069613          	slli	a2,a3,0x20
  200ea8:	9201                	srli	a2,a2,0x20
  200eaa:	00a66363          	bltu	a2,a0,200eb0 <_ftoa+0x22c>
  200eae:	467d                	li	a2,31
  200eb0:	00158793          	addi	a5,a1,1
  200eb4:	40c00633          	neg	a2,a2
  200eb8:	4505                	li	a0,1
  200eba:	868a                	mv	a3,sp
  200ebc:	03000593          	li	a1,48
  200ec0:	00b68023          	sb	a1,0(a3)
  200ec4:	377d                	addiw	a4,a4,-1
  200ec6:	157d                	addi	a0,a0,-1
  200ec8:	0685                	addi	a3,a3,1
  200eca:	fea61be3          	bne	a2,a0,200ec0 <_ftoa+0x23c>
  200ece:	40a00533          	neg	a0,a0
  200ed2:	01f53593          	sltiu	a1,a0,31
  200ed6:	86ba                	mv	a3,a4
  200ed8:	c2051f53          	fcvt.w.d	t5,fa0,rtz
  200edc:	02069513          	slli	a0,a3,0x20
  200ee0:	00202737          	lui	a4,0x202
  200ee4:	ed870713          	addi	a4,a4,-296 # 201ed8 <_ftoa.pow10>
  200ee8:	8175                	srli	a0,a0,0x1d
  200eea:	953a                	add	a0,a0,a4
  200eec:	211c                	fld	fa5,0(a0)
  200eee:	00202537          	lui	a0,0x202
  200ef2:	d20f0753          	fcvt.d.w	fa4,t5
  200ef6:	0ae57753          	fsub.d	fa4,fa0,fa4
  200efa:	12f776d3          	fmul.d	fa3,fa4,fa5
  200efe:	33853707          	fld	fa4,824(a0) # 202338 <_text_end+0x410>
  200f02:	c2369653          	fcvt.lu.d	a2,fa3,rtz
  200f06:	d2367653          	fcvt.d.lu	fa2,a2
  200f0a:	0ac6f6d3          	fsub.d	fa3,fa3,fa2
  200f0e:	a2d71753          	flt.d	a4,fa4,fa3
  200f12:	cb11                	beqz	a4,200f26 <_ftoa+0x2a2>
  200f14:	0605                	addi	a2,a2,1
  200f16:	d2367753          	fcvt.d.lu	fa4,a2
  200f1a:	a2e78753          	fle.d	a4,fa5,fa4
  200f1e:	cf01                	beqz	a4,200f36 <_ftoa+0x2b2>
  200f20:	4601                	li	a2,0
  200f22:	2f05                	addiw	t5,t5,1
  200f24:	a809                	j	200f36 <_ftoa+0x2b2>
  200f26:	a2e69753          	flt.d	a4,fa3,fa4
  200f2a:	e711                	bnez	a4,200f36 <_ftoa+0x2b2>
  200f2c:	00163713          	seqz	a4,a2
  200f30:	8f51                	or	a4,a4,a2
  200f32:	8b05                	andi	a4,a4,1
  200f34:	963a                	add	a2,a2,a4
  200f36:	c2c5                	beqz	a3,200fd6 <_ftoa+0x352>
  200f38:	02000c93          	li	s9,32
  200f3c:	10058363          	beqz	a1,201042 <_ftoa+0x3be>
  200f40:	40d006bb          	negw	a3,a3
  200f44:	ccccd737          	lui	a4,0xccccd
  200f48:	42a9                	li	t0,10
  200f4a:	830a                	mv	t1,sp
  200f4c:	43f9                	li	t2,30
  200f4e:	ccd7041b          	addiw	s0,a4,-819 # ffffffffcccccccd <__sel4_ipc_buffer_obj+0xffffffffccac7ccd>
  200f52:	02041713          	slli	a4,s0,0x20
  200f56:	00e40eb3          	add	t4,s0,a4
  200f5a:	4e25                	li	t3,9
  200f5c:	8532                	mv	a0,a2
  200f5e:	85be                	mv	a1,a5
  200f60:	03d63633          	mulhu	a2,a2,t4
  200f64:	0785                	addi	a5,a5,1
  200f66:	00b304b3          	add	s1,t1,a1
  200f6a:	820d                	srli	a2,a2,0x3
  200f6c:	02560433          	mul	s0,a2,t0
  200f70:	4085073b          	subw	a4,a0,s0
  200f74:	03076713          	ori	a4,a4,48
  200f78:	00e48023          	sb	a4,0(s1)
  200f7c:	2685                	addiw	a3,a3,1
  200f7e:	00b3e463          	bltu	t2,a1,200f86 <_ftoa+0x302>
  200f82:	fcae6de3          	bltu	t3,a0,200f5c <_ftoa+0x2d8>
  200f86:	fff78593          	addi	a1,a5,-1
  200f8a:	01f5b513          	sltiu	a0,a1,31
  200f8e:	4679                	li	a2,30
  200f90:	00154513          	xori	a0,a0,1
  200f94:	02b66863          	bltu	a2,a1,200fc4 <_ftoa+0x340>
  200f98:	c695                	beqz	a3,200fc4 <_ftoa+0x340>
  200f9a:	fff6c413          	not	s0,a3
  200f9e:	868a                	mv	a3,sp
  200fa0:	03000713          	li	a4,48
  200fa4:	45f9                	li	a1,30
  200fa6:	863e                	mv	a2,a5
  200fa8:	0785                	addi	a5,a5,1
  200faa:	00c68533          	add	a0,a3,a2
  200fae:	00e50023          	sb	a4,0(a0)
  200fb2:	01f63513          	sltiu	a0,a2,31
  200fb6:	00154513          	xori	a0,a0,1
  200fba:	00c5e563          	bltu	a1,a2,200fc4 <_ftoa+0x340>
  200fbe:	84a2                	mv	s1,s0
  200fc0:	347d                	addiw	s0,s0,-1
  200fc2:	f0f5                	bnez	s1,200fa6 <_ftoa+0x322>
  200fc4:	ed3d                	bnez	a0,201042 <_ftoa+0x3be>
  200fc6:	850a                	mv	a0,sp
  200fc8:	953e                	add	a0,a0,a5
  200fca:	0785                	addi	a5,a5,1
  200fcc:	02e00593          	li	a1,46
  200fd0:	00b50023          	sb	a1,0(a0)
  200fd4:	a839                	j	200ff2 <_ftoa+0x36e>
  200fd6:	33853787          	fld	fa5,824(a0)
  200fda:	d20f0753          	fcvt.d.w	fa4,t5
  200fde:	0ae57753          	fsub.d	fa4,fa0,fa4
  200fe2:	a2f71553          	flt.d	a0,fa4,fa5
  200fe6:	00154513          	xori	a0,a0,1
  200fea:	01e57533          	and	a0,a0,t5
  200fee:	00af0f3b          	addw	t5,t5,a0
  200ff2:	457d                	li	a0,31
  200ff4:	04f56563          	bltu	a0,a5,20103e <_ftoa+0x3ba>
  200ff8:	666665b7          	lui	a1,0x66666
  200ffc:	42a9                	li	t0,10
  200ffe:	868a                	mv	a3,sp
  201000:	4779                	li	a4,30
  201002:	6675841b          	addiw	s0,a1,1639 # 66666667 <__sel4_ipc_buffer_obj+0x66461667>
  201006:	54b5                	li	s1,-19
  201008:	8cbe                	mv	s9,a5
  20100a:	8666                	mv	a2,s9
  20100c:	028f05b3          	mul	a1,t5,s0
  201010:	0c85                	addi	s9,s9,1
  201012:	03f5d793          	srli	a5,a1,0x3f
  201016:	9589                	srai	a1,a1,0x22
  201018:	9dbd                	addw	a1,a1,a5
  20101a:	025587b3          	mul	a5,a1,t0
  20101e:	40ff07bb          	subw	a5,t5,a5
  201022:	03078793          	addi	a5,a5,48
  201026:	00c68533          	add	a0,a3,a2
  20102a:	00f50023          	sb	a5,0(a0)
  20102e:	00c76a63          	bltu	a4,a2,201042 <_ftoa+0x3be>
  201032:	ff6f051b          	addiw	a0,t5,-10
  201036:	8f2e                	mv	t5,a1
  201038:	fc9569e3          	bltu	a0,s1,20100a <_ftoa+0x386>
  20103c:	a019                	j	201042 <_ftoa+0x3be>
  20103e:	02000c93          	li	s9,32
  201042:	00387593          	andi	a1,a6,3
  201046:	4505                	li	a0,1
  201048:	04a59063          	bne	a1,a0,201088 <_ftoa+0x404>
  20104c:	000a0a63          	beqz	s4,201060 <_ftoa+0x3dc>
  201050:	00c87513          	andi	a0,a6,12
  201054:	00a03533          	snez	a0,a0
  201058:	00a8e533          	or	a0,a7,a0
  20105c:	40aa0a3b          	subw	s4,s4,a0
  201060:	02000613          	li	a2,32
  201064:	8552                	mv	a0,s4
  201066:	00ca6463          	bltu	s4,a2,20106e <_ftoa+0x3ea>
  20106a:	02000513          	li	a0,32
  20106e:	00acfd63          	bgeu	s9,a0,201088 <_ftoa+0x404>
  201072:	860a                	mv	a2,sp
  201074:	9cb2                	add	s9,s9,a2
  201076:	962a                	add	a2,a2,a0
  201078:	03000693          	li	a3,48
  20107c:	00dc8023          	sb	a3,0(s9)
  201080:	0c85                	addi	s9,s9,1
  201082:	fecc9de3          	bne	s9,a2,20107c <_ftoa+0x3f8>
  201086:	8caa                	mv	s9,a0
  201088:	457d                	li	a0,31
  20108a:	01956863          	bltu	a0,s9,20109a <_ftoa+0x416>
  20108e:	00088a63          	beqz	a7,2010a2 <_ftoa+0x41e>
  201092:	8bc2                	mv	s7,a6
  201094:	02d00513          	li	a0,45
  201098:	a015                	j	2010bc <_ftoa+0x438>
  20109a:	8bc2                	mv	s7,a6
  20109c:	02000c93          	li	s9,32
  2010a0:	a01d                	j	2010c6 <_ftoa+0x442>
  2010a2:	00487513          	andi	a0,a6,4
  2010a6:	e901                	bnez	a0,2010b6 <_ftoa+0x432>
  2010a8:	8bc2                	mv	s7,a6
  2010aa:	00887513          	andi	a0,a6,8
  2010ae:	cd01                	beqz	a0,2010c6 <_ftoa+0x442>
  2010b0:	02000513          	li	a0,32
  2010b4:	a021                	j	2010bc <_ftoa+0x438>
  2010b6:	8bc2                	mv	s7,a6
  2010b8:	02b00513          	li	a0,43
  2010bc:	860a                	mv	a2,sp
  2010be:	9666                	add	a2,a2,s9
  2010c0:	0c85                	addi	s9,s9,1
  2010c2:	00a60023          	sb	a0,0(a2)
  2010c6:	84ce                	mv	s1,s3
  2010c8:	e585                	bnez	a1,2010f0 <_ftoa+0x46c>
  2010ca:	020a1513          	slli	a0,s4,0x20
  2010ce:	9101                	srli	a0,a0,0x20
  2010d0:	84ce                	mv	s1,s3
  2010d2:	00acff63          	bgeu	s9,a0,2010f0 <_ftoa+0x46c>
  2010d6:	41950433          	sub	s0,a0,s9
  2010da:	864e                	mv	a2,s3
  2010dc:	00160493          	addi	s1,a2,1
  2010e0:	02000513          	li	a0,32
  2010e4:	85d6                	mv	a1,s5
  2010e6:	86ca                	mv	a3,s2
  2010e8:	9b02                	jalr	s6
  2010ea:	147d                	addi	s0,s0,-1
  2010ec:	8626                	mv	a2,s1
  2010ee:	f47d                	bnez	s0,2010dc <_ftoa+0x458>
  2010f0:	002bfb93          	andi	s7,s7,2
  2010f4:	fff10c13          	addi	s8,sp,-1
  2010f8:	019c0533          	add	a0,s8,s9
  2010fc:	00054503          	lbu	a0,0(a0)
  201100:	8626                	mv	a2,s1
  201102:	fffc8413          	addi	s0,s9,-1
  201106:	0485                	addi	s1,s1,1
  201108:	85d6                	mv	a1,s5
  20110a:	86ca                	mv	a3,s2
  20110c:	9b02                	jalr	s6
  20110e:	8ca2                	mv	s9,s0
  201110:	f465                	bnez	s0,2010f8 <_ftoa+0x474>
  201112:	020b8963          	beqz	s7,201144 <_ftoa+0x4c0>
  201116:	1a02                	slli	s4,s4,0x20
  201118:	020a5a13          	srli	s4,s4,0x20
  20111c:	41348533          	sub	a0,s1,s3
  201120:	03457263          	bgeu	a0,s4,201144 <_ftoa+0x4c0>
  201124:	413009b3          	neg	s3,s3
  201128:	00148413          	addi	s0,s1,1
  20112c:	02000513          	li	a0,32
  201130:	85d6                	mv	a1,s5
  201132:	8626                	mv	a2,s1
  201134:	86ca                	mv	a3,s2
  201136:	9b02                	jalr	s6
  201138:	00898533          	add	a0,s3,s0
  20113c:	84a2                	mv	s1,s0
  20113e:	ff4565e3          	bltu	a0,s4,201128 <_ftoa+0x4a4>
  201142:	a011                	j	201146 <_ftoa+0x4c2>
  201144:	8426                	mv	s0,s1
  201146:	8522                	mv	a0,s0
  201148:	70e6                	ld	ra,120(sp)
  20114a:	7446                	ld	s0,112(sp)
  20114c:	74a6                	ld	s1,104(sp)
  20114e:	7906                	ld	s2,96(sp)
  201150:	69e6                	ld	s3,88(sp)
  201152:	6a46                	ld	s4,80(sp)
  201154:	6aa6                	ld	s5,72(sp)
  201156:	6b06                	ld	s6,64(sp)
  201158:	7be2                	ld	s7,56(sp)
  20115a:	7c42                	ld	s8,48(sp)
  20115c:	7ca2                	ld	s9,40(sp)
  20115e:	7d02                	ld	s10,32(sp)
  201160:	6109                	addi	sp,sp,128
  201162:	8082                	ret
  201164:	00202737          	lui	a4,0x202
  201168:	24270713          	addi	a4,a4,578 # 202242 <_text_end+0x31a>
  20116c:	478d                	li	a5,3
  20116e:	855a                	mv	a0,s6
  201170:	85d6                	mv	a1,s5
  201172:	864e                	mv	a2,s3
  201174:	86ca                	mv	a3,s2
  201176:	88c2                	mv	a7,a6
  201178:	8852                	mv	a6,s4
  20117a:	70e6                	ld	ra,120(sp)
  20117c:	7446                	ld	s0,112(sp)
  20117e:	74a6                	ld	s1,104(sp)
  201180:	7906                	ld	s2,96(sp)
  201182:	69e6                	ld	s3,88(sp)
  201184:	6a46                	ld	s4,80(sp)
  201186:	6aa6                	ld	s5,72(sp)
  201188:	6b06                	ld	s6,64(sp)
  20118a:	7be2                	ld	s7,56(sp)
  20118c:	7c42                	ld	s8,48(sp)
  20118e:	7ca2                	ld	s9,40(sp)
  201190:	7d02                	ld	s10,32(sp)
  201192:	6109                	addi	sp,sp,128
  201194:	abb9                	j	2016f2 <_out_rev>

0000000000201196 <_etoa>:
  201196:	7119                	addi	sp,sp,-128
  201198:	fc86                	sd	ra,120(sp)
  20119a:	f8a2                	sd	s0,112(sp)
  20119c:	f4a6                	sd	s1,104(sp)
  20119e:	f0ca                	sd	s2,96(sp)
  2011a0:	ecce                	sd	s3,88(sp)
  2011a2:	e8d2                	sd	s4,80(sp)
  2011a4:	e4d6                	sd	s5,72(sp)
  2011a6:	e0da                	sd	s6,64(sp)
  2011a8:	fc5e                	sd	s7,56(sp)
  2011aa:	f862                	sd	s8,48(sp)
  2011ac:	f466                	sd	s9,40(sp)
  2011ae:	f06a                	sd	s10,32(sp)
  2011b0:	8936                	mv	s2,a3
  2011b2:	89ae                	mv	s3,a1
  2011b4:	8a2a                	mv	s4,a0
  2011b6:	a2a52553          	feq.d	a0,fa0,fa0
  2011ba:	16050a63          	beqz	a0,20132e <_etoa+0x198>
  2011be:	00202537          	lui	a0,0x202
  2011c2:	30853787          	fld	fa5,776(a0) # 202308 <_text_end+0x3e0>
  2011c6:	22a52753          	fabs.d	fa4,fa0
  2011ca:	a2e79553          	flt.d	a0,fa5,fa4
  2011ce:	16051063          	bnez	a0,20132e <_etoa+0x198>
  2011d2:	88ba                	mv	a7,a4
  2011d4:	f20007d3          	fmv.d.x	fa5,zero
  2011d8:	a2f512d3          	flt.d	t0,fa0,fa5
  2011dc:	00028463          	beqz	t0,2011e4 <_etoa+0x4e>
  2011e0:	22a51553          	fneg.d	fa0,fa0
  2011e4:	40087593          	andi	a1,a6,1024
  2011e8:	e191                	bnez	a1,2011ec <_etoa+0x56>
  2011ea:	4719                	li	a4,6
  2011ec:	e2050553          	fmv.x.d	a0,fa0
  2011f0:	3ff00493          	li	s1,1023
  2011f4:	00202437          	lui	s0,0x202
  2011f8:	34843787          	fld	fa5,840(s0) # 202348 <_text_end+0x420>
  2011fc:	00202437          	lui	s0,0x202
  201200:	36043707          	fld	fa4,864(s0) # 202360 <_text_end+0x438>
  201204:	00202437          	lui	s0,0x202
  201208:	2f843687          	fld	fa3,760(s0) # 2022f8 <_text_end+0x3d0>
  20120c:	00202437          	lui	s0,0x202
  201210:	36843607          	fld	fa2,872(s0) # 202368 <_text_end+0x440>
  201214:	00202437          	lui	s0,0x202
  201218:	33843587          	fld	fa1,824(s0) # 202338 <_text_end+0x410>
  20121c:	00151693          	slli	a3,a0,0x1
  201220:	92d5                	srli	a3,a3,0x35
  201222:	c0168693          	addi	a3,a3,-1023
  201226:	d2068053          	fcvt.d.w	ft0,a3
  20122a:	002026b7          	lui	a3,0x202
  20122e:	7ae077c3          	fmadd.d	fa5,ft0,fa4,fa5
  201232:	3186b707          	fld	fa4,792(a3) # 202318 <_text_end+0x3f0>
  201236:	002026b7          	lui	a3,0x202
  20123a:	0532                	slli	a0,a0,0xc
  20123c:	14d2                	slli	s1,s1,0x34
  20123e:	8131                	srli	a0,a0,0xc
  201240:	8d45                	or	a0,a0,s1
  201242:	002024b7          	lui	s1,0x202
  201246:	f2050053          	fmv.d.x	ft0,a0
  20124a:	00202537          	lui	a0,0x202
  20124e:	02d076d3          	fadd.d	fa3,ft0,fa3
  201252:	3506b007          	fld	ft0,848(a3) # 202350 <_text_end+0x428>
  201256:	002026b7          	lui	a3,0x202
  20125a:	7ac6f7c3          	fmadd.d	fa5,fa3,fa2,fa5
  20125e:	3204b687          	fld	fa3,800(s1) # 202320 <_text_end+0x3f8>
  201262:	002024b7          	lui	s1,0x202
  201266:	30053607          	fld	fa2,768(a0) # 202300 <_text_end+0x3d8>
  20126a:	c2079ad3          	fcvt.w.d	s5,fa5,rtz
  20126e:	d20a87d3          	fcvt.d.w	fa5,s5
  201272:	5ae7f743          	fmadd.d	fa4,fa5,fa4,fa1
  201276:	3406b587          	fld	fa1,832(a3) # 202340 <_text_end+0x418>
  20127a:	c2071553          	fcvt.w.d	a0,fa4,rtz
  20127e:	d2050753          	fcvt.d.w	fa4,a0
  201282:	12077053          	fmul.d	ft0,fa4,ft0
  201286:	3304b707          	fld	fa4,816(s1) # 202330 <_text_end+0x408>
  20128a:	002026b7          	lui	a3,0x202
  20128e:	02d7f7c3          	fmadd.d	fa5,fa5,fa3,ft0
  201292:	2f06b687          	fld	fa3,752(a3) # 2022f0 <_text_end+0x3c8>
  201296:	002026b7          	lui	a3,0x202
  20129a:	12f7f053          	fmul.d	ft0,fa5,fa5
  20129e:	1ab075d3          	fdiv.d	fa1,ft0,fa1
  2012a2:	02e5f5d3          	fadd.d	fa1,fa1,fa4
  2012a6:	1ab075d3          	fdiv.d	fa1,ft0,fa1
  2012aa:	02d5f6d3          	fadd.d	fa3,fa1,fa3
  2012ae:	3286b587          	fld	fa1,808(a3) # 202328 <_text_end+0x400>
  2012b2:	3ff50513          	addi	a0,a0,1023
  2012b6:	1552                	slli	a0,a0,0x34
  2012b8:	0af67653          	fsub.d	fa2,fa2,fa5
  2012bc:	02f7f7d3          	fadd.d	fa5,fa5,fa5
  2012c0:	1ad076d3          	fdiv.d	fa3,ft0,fa3
  2012c4:	02d676d3          	fadd.d	fa3,fa2,fa3
  2012c8:	1ad7f7d3          	fdiv.d	fa5,fa5,fa3
  2012cc:	02b7f7d3          	fadd.d	fa5,fa5,fa1
  2012d0:	f20506d3          	fmv.d.x	fa3,a0
  2012d4:	12d7f7d3          	fmul.d	fa5,fa5,fa3
  2012d8:	a2f51553          	flt.d	a0,fa0,fa5
  2012dc:	c501                	beqz	a0,2012e4 <_etoa+0x14e>
  2012de:	3afd                	addiw	s5,s5,-1
  2012e0:	1ae7f7d3          	fdiv.d	fa5,fa5,fa4
  2012e4:	063a851b          	addiw	a0,s5,99
  2012e8:	0c753513          	sltiu	a0,a0,199
  2012ec:	03481693          	slli	a3,a6,0x34
  2012f0:	00554b13          	xori	s6,a0,5
  2012f4:	0606d463          	bgez	a3,20135c <_etoa+0x1c6>
  2012f8:	00202537          	lui	a0,0x202
  2012fc:	37053707          	fld	fa4,880(a0) # 202370 <_text_end+0x448>
  201300:	a2a70553          	fle.d	a0,fa4,fa0
  201304:	c531                	beqz	a0,201350 <_etoa+0x1ba>
  201306:	00202537          	lui	a0,0x202
  20130a:	35853707          	fld	fa4,856(a0) # 202358 <_text_end+0x430>
  20130e:	a2e51553          	flt.d	a0,fa0,fa4
  201312:	cd1d                	beqz	a0,201350 <_etoa+0x1ba>
  201314:	4b01                	li	s6,0
  201316:	00eaa533          	slt	a0,s5,a4
  20131a:	fffac593          	not	a1,s5
  20131e:	9db9                	addw	a1,a1,a4
  201320:	40a00733          	neg	a4,a0
  201324:	8f6d                	and	a4,a4,a1
  201326:	40086813          	ori	a6,a6,1024
  20132a:	4a81                	li	s5,0
  20132c:	a805                	j	20135c <_etoa+0x1c6>
  20132e:	8552                	mv	a0,s4
  201330:	85ce                	mv	a1,s3
  201332:	86ca                	mv	a3,s2
  201334:	70e6                	ld	ra,120(sp)
  201336:	7446                	ld	s0,112(sp)
  201338:	74a6                	ld	s1,104(sp)
  20133a:	7906                	ld	s2,96(sp)
  20133c:	69e6                	ld	s3,88(sp)
  20133e:	6a46                	ld	s4,80(sp)
  201340:	6aa6                	ld	s5,72(sp)
  201342:	6b06                	ld	s6,64(sp)
  201344:	7be2                	ld	s7,56(sp)
  201346:	7c42                	ld	s8,48(sp)
  201348:	7ca2                	ld	s9,40(sp)
  20134a:	7d02                	ld	s10,32(sp)
  20134c:	6109                	addi	sp,sp,128
  20134e:	ba1d                	j	200c84 <_ftoa>
  201350:	c711                	beqz	a4,20135c <_etoa+0x1c6>
  201352:	e199                	bnez	a1,201358 <_etoa+0x1c2>
  201354:	4719                	li	a4,6
  201356:	a019                	j	20135c <_etoa+0x1c6>
  201358:	fff8871b          	addiw	a4,a7,-1
  20135c:	4167853b          	subw	a0,a5,s6
  201360:	00185593          	srli	a1,a6,0x1
  201364:	016036b3          	snez	a3,s6
  201368:	8eed                	and	a3,a3,a1
  20136a:	00a7b5b3          	sltu	a1,a5,a0
  20136e:	15fd                	addi	a1,a1,-1
  201370:	8de9                	and	a1,a1,a0
  201372:	fff68493          	addi	s1,a3,-1
  201376:	000a9663          	bnez	s5,201382 <_etoa+0x1ec>
  20137a:	00202537          	lui	a0,0x202
  20137e:	32853787          	fld	fa5,808(a0) # 202328 <_text_end+0x400>
  201382:	8ced                	and	s1,s1,a1
  201384:	1af57553          	fdiv.d	fa0,fa0,fa5
  201388:	8bbe                	mv	s7,a5
  20138a:	00028463          	beqz	t0,201392 <_etoa+0x1fc>
  20138e:	22a51553          	fneg.d	fa0,fa0
  201392:	757d                	lui	a0,0xfffff
  201394:	7ff5051b          	addiw	a0,a0,2047 # fffffffffffff7ff <__sel4_ipc_buffer_obj+0xffffffffffdfa7ff>
  201398:	8cc2                	mv	s9,a6
  20139a:	00a87833          	and	a6,a6,a0
  20139e:	8552                	mv	a0,s4
  2013a0:	85ce                	mv	a1,s3
  2013a2:	8c32                	mv	s8,a2
  2013a4:	86ca                	mv	a3,s2
  2013a6:	87a6                	mv	a5,s1
  2013a8:	8ddff0ef          	jal	200c84 <_ftoa>
  2013ac:	8d2a                	mv	s10,a0
  2013ae:	100b0563          	beqz	s6,2014b8 <_etoa+0x322>
  2013b2:	8566                	mv	a0,s9
  2013b4:	002cfc93          	andi	s9,s9,2
  2013b8:	02057513          	andi	a0,a0,32
  2013bc:	06554513          	xori	a0,a0,101
  2013c0:	85ce                	mv	a1,s3
  2013c2:	866a                	mv	a2,s10
  2013c4:	86ca                	mv	a3,s2
  2013c6:	9a02                	jalr	s4
  2013c8:	4681                	li	a3,0
  2013ca:	41fad61b          	sraiw	a2,s5,0x1f
  2013ce:	858a                	mv	a1,sp
  2013d0:	ccccd737          	lui	a4,0xccccd
  2013d4:	4829                	li	a6,10
  2013d6:	48f9                	li	a7,30
  2013d8:	00cac7b3          	xor	a5,s5,a2
  2013dc:	ccd7051b          	addiw	a0,a4,-819 # ffffffffcccccccd <__sel4_ipc_buffer_obj+0xffffffffccac7ccd>
  2013e0:	40c7873b          	subw	a4,a5,a2
  2013e4:	02051793          	slli	a5,a0,0x20
  2013e8:	97aa                	add	a5,a5,a0
  2013ea:	42a5                	li	t0,9
  2013ec:	863a                	mv	a2,a4
  2013ee:	8536                	mv	a0,a3
  2013f0:	02f73733          	mulhu	a4,a4,a5
  2013f4:	0685                	addi	a3,a3,1
  2013f6:	830d                	srli	a4,a4,0x3
  2013f8:	03070433          	mul	s0,a4,a6
  2013fc:	408604bb          	subw	s1,a2,s0
  201400:	0304e493          	ori	s1,s1,48
  201404:	00958023          	sb	s1,0(a1)
  201408:	0585                	addi	a1,a1,1
  20140a:	00a8e463          	bltu	a7,a0,201412 <_etoa+0x27c>
  20140e:	fcc2efe3          	bltu	t0,a2,2013ec <_etoa+0x256>
  201412:	1b79                	addi	s6,s6,-2
  201414:	02000513          	li	a0,32
  201418:	06ab6f63          	bltu	s6,a0,201496 <_etoa+0x300>
  20141c:	02000b13          	li	s6,32
  201420:	0766ed63          	bltu	a3,s6,20149a <_etoa+0x304>
  201424:	457d                	li	a0,31
  201426:	00d56c63          	bltu	a0,a3,20143e <_etoa+0x2a8>
  20142a:	03ead513          	srli	a0,s5,0x3e
  20142e:	858a                	mv	a1,sp
  201430:	8909                	andi	a0,a0,2
  201432:	95b6                	add	a1,a1,a3
  201434:	02b50513          	addi	a0,a0,43
  201438:	0685                	addi	a3,a3,1
  20143a:	00a58023          	sb	a0,0(a1)
  20143e:	001d0493          	addi	s1,s10,1
  201442:	850a                	mv	a0,sp
  201444:	00dd0ab3          	add	s5,s10,a3
  201448:	9536                	add	a0,a0,a3
  20144a:	fff50413          	addi	s0,a0,-1
  20144e:	0a85                	addi	s5,s5,1
  201450:	00044503          	lbu	a0,0(s0)
  201454:	8626                	mv	a2,s1
  201456:	0485                	addi	s1,s1,1
  201458:	85ce                	mv	a1,s3
  20145a:	86ca                	mv	a3,s2
  20145c:	9a02                	jalr	s4
  20145e:	147d                	addi	s0,s0,-1
  201460:	ff5498e3          	bne	s1,s5,201450 <_etoa+0x2ba>
  201464:	040c8963          	beqz	s9,2014b6 <_etoa+0x320>
  201468:	1b82                	slli	s7,s7,0x20
  20146a:	020bda93          	srli	s5,s7,0x20
  20146e:	41848533          	sub	a0,s1,s8
  201472:	05557263          	bgeu	a0,s5,2014b6 <_etoa+0x320>
  201476:	41800b33          	neg	s6,s8
  20147a:	00148d13          	addi	s10,s1,1
  20147e:	02000513          	li	a0,32
  201482:	85ce                	mv	a1,s3
  201484:	8626                	mv	a2,s1
  201486:	86ca                	mv	a3,s2
  201488:	9a02                	jalr	s4
  20148a:	01ab0533          	add	a0,s6,s10
  20148e:	84ea                	mv	s1,s10
  201490:	ff5565e3          	bltu	a0,s5,20147a <_etoa+0x2e4>
  201494:	a015                	j	2014b8 <_etoa+0x322>
  201496:	f966f7e3          	bgeu	a3,s6,201424 <_etoa+0x28e>
  20149a:	850a                	mv	a0,sp
  20149c:	955a                	add	a0,a0,s6
  20149e:	03000613          	li	a2,48
  2014a2:	00c58023          	sb	a2,0(a1)
  2014a6:	0585                	addi	a1,a1,1
  2014a8:	fea59de3          	bne	a1,a0,2014a2 <_etoa+0x30c>
  2014ac:	86da                	mv	a3,s6
  2014ae:	457d                	li	a0,31
  2014b0:	f7657de3          	bgeu	a0,s6,20142a <_etoa+0x294>
  2014b4:	b769                	j	20143e <_etoa+0x2a8>
  2014b6:	8d26                	mv	s10,s1
  2014b8:	856a                	mv	a0,s10
  2014ba:	70e6                	ld	ra,120(sp)
  2014bc:	7446                	ld	s0,112(sp)
  2014be:	74a6                	ld	s1,104(sp)
  2014c0:	7906                	ld	s2,96(sp)
  2014c2:	69e6                	ld	s3,88(sp)
  2014c4:	6a46                	ld	s4,80(sp)
  2014c6:	6aa6                	ld	s5,72(sp)
  2014c8:	6b06                	ld	s6,64(sp)
  2014ca:	7be2                	ld	s7,56(sp)
  2014cc:	7c42                	ld	s8,48(sp)
  2014ce:	7ca2                	ld	s9,40(sp)
  2014d0:	7d02                	ld	s10,32(sp)
  2014d2:	6109                	addi	sp,sp,128
  2014d4:	8082                	ret

00000000002014d6 <_ntoa_format>:
  2014d6:	711d                	addi	sp,sp,-96
  2014d8:	ec86                	sd	ra,88(sp)
  2014da:	e8a2                	sd	s0,80(sp)
  2014dc:	e4a6                	sd	s1,72(sp)
  2014de:	e0ca                	sd	s2,64(sp)
  2014e0:	fc4e                	sd	s3,56(sp)
  2014e2:	f852                	sd	s4,48(sp)
  2014e4:	f456                	sd	s5,40(sp)
  2014e6:	f05a                	sd	s6,32(sp)
  2014e8:	ec5e                	sd	s7,24(sp)
  2014ea:	e862                	sd	s8,16(sp)
  2014ec:	e466                	sd	s9,8(sp)
  2014ee:	8a76                	mv	s4,t4
  2014f0:	8b3e                	mv	s6,a5
  2014f2:	8aba                	mv	s5,a4
  2014f4:	8936                	mv	s2,a3
  2014f6:	89b2                	mv	s3,a2
  2014f8:	8bae                	mv	s7,a1
  2014fa:	002f7c93          	andi	s9,t5,2
  2014fe:	8c2a                	mv	s8,a0
  201500:	060c9c63          	bnez	s9,201578 <_ntoa_format+0xa2>
  201504:	85f2                	mv	a1,t3
  201506:	001f7513          	andi	a0,t5,1
  20150a:	000a0b63          	beqz	s4,201520 <_ntoa_format+0x4a>
  20150e:	c909                	beqz	a0,201520 <_ntoa_format+0x4a>
  201510:	00cf7613          	andi	a2,t5,12
  201514:	00c03633          	snez	a2,a2
  201518:	00c86633          	or	a2,a6,a2
  20151c:	40ca0a3b          	subw	s4,s4,a2
  201520:	02000613          	li	a2,32
  201524:	00c5e863          	bltu	a1,a2,201534 <_ntoa_format+0x5e>
  201528:	02000593          	li	a1,32
  20152c:	00bb6663          	bltu	s6,a1,201538 <_ntoa_format+0x62>
  201530:	e105                	bnez	a0,201550 <_ntoa_format+0x7a>
  201532:	a099                	j	201578 <_ntoa_format+0xa2>
  201534:	febb7ee3          	bgeu	s6,a1,201530 <_ntoa_format+0x5a>
  201538:	9b56                	add	s6,s6,s5
  20153a:	00ba8633          	add	a2,s5,a1
  20153e:	03000693          	li	a3,48
  201542:	00db0023          	sb	a3,0(s6)
  201546:	0b05                	addi	s6,s6,1
  201548:	fecb1de3          	bne	s6,a2,201542 <_ntoa_format+0x6c>
  20154c:	8b2e                	mv	s6,a1
  20154e:	c50d                	beqz	a0,201578 <_ntoa_format+0xa2>
  201550:	02000593          	li	a1,32
  201554:	8552                	mv	a0,s4
  201556:	00ba6463          	bltu	s4,a1,20155e <_ntoa_format+0x88>
  20155a:	02000513          	li	a0,32
  20155e:	00ab7d63          	bgeu	s6,a0,201578 <_ntoa_format+0xa2>
  201562:	9b56                	add	s6,s6,s5
  201564:	00aa85b3          	add	a1,s5,a0
  201568:	03000613          	li	a2,48
  20156c:	00cb0023          	sb	a2,0(s6)
  201570:	0b05                	addi	s6,s6,1
  201572:	febb1de3          	bne	s6,a1,20156c <_ntoa_format+0x96>
  201576:	8b2a                	mv	s6,a0
  201578:	010f7513          	andi	a0,t5,16
  20157c:	cd41                	beqz	a0,201614 <_ntoa_format+0x13e>
  20157e:	400f7513          	andi	a0,t5,1024
  201582:	ed09                	bnez	a0,20159c <_ntoa_format+0xc6>
  201584:	000b0c63          	beqz	s6,20159c <_ntoa_format+0xc6>
  201588:	1e02                	slli	t3,t3,0x20
  20158a:	020e5513          	srli	a0,t3,0x20
  20158e:	02ab0c63          	beq	s6,a0,2015c6 <_ntoa_format+0xf0>
  201592:	020a1513          	slli	a0,s4,0x20
  201596:	9101                	srli	a0,a0,0x20
  201598:	02ab0763          	beq	s6,a0,2015c6 <_ntoa_format+0xf0>
  20159c:	4541                	li	a0,16
  20159e:	04a89463          	bne	a7,a0,2015e6 <_ntoa_format+0x110>
  2015a2:	020f7513          	andi	a0,t5,32
  2015a6:	e901                	bnez	a0,2015b6 <_ntoa_format+0xe0>
  2015a8:	02000593          	li	a1,32
  2015ac:	00bb7563          	bgeu	s6,a1,2015b6 <_ntoa_format+0xe0>
  2015b0:	07800513          	li	a0,120
  2015b4:	a089                	j	2015f6 <_ntoa_format+0x120>
  2015b6:	c529                	beqz	a0,201600 <_ntoa_format+0x12a>
  2015b8:	02000513          	li	a0,32
  2015bc:	04ab7263          	bgeu	s6,a0,201600 <_ntoa_format+0x12a>
  2015c0:	05800513          	li	a0,88
  2015c4:	a80d                	j	2015f6 <_ntoa_format+0x120>
  2015c6:	fffb0513          	addi	a0,s6,-1
  2015ca:	ff088593          	addi	a1,a7,-16
  2015ce:	00a03633          	snez	a2,a0
  2015d2:	0015b593          	seqz	a1,a1
  2015d6:	8df1                	and	a1,a1,a2
  2015d8:	c199                	beqz	a1,2015de <_ntoa_format+0x108>
  2015da:	ffeb0513          	addi	a0,s6,-2
  2015de:	8b2a                	mv	s6,a0
  2015e0:	4541                	li	a0,16
  2015e2:	fca880e3          	beq	a7,a0,2015a2 <_ntoa_format+0xcc>
  2015e6:	4509                	li	a0,2
  2015e8:	00a89c63          	bne	a7,a0,201600 <_ntoa_format+0x12a>
  2015ec:	457d                	li	a0,31
  2015ee:	01656963          	bltu	a0,s6,201600 <_ntoa_format+0x12a>
  2015f2:	06200513          	li	a0,98
  2015f6:	016a85b3          	add	a1,s5,s6
  2015fa:	0b05                	addi	s6,s6,1
  2015fc:	00a58023          	sb	a0,0(a1)
  201600:	457d                	li	a0,31
  201602:	05656163          	bltu	a0,s6,201644 <_ntoa_format+0x16e>
  201606:	016a8533          	add	a0,s5,s6
  20160a:	0b05                	addi	s6,s6,1
  20160c:	03000593          	li	a1,48
  201610:	00b50023          	sb	a1,0(a0)
  201614:	457d                	li	a0,31
  201616:	03656763          	bltu	a0,s6,201644 <_ntoa_format+0x16e>
  20161a:	00080563          	beqz	a6,201624 <_ntoa_format+0x14e>
  20161e:	02d00513          	li	a0,45
  201622:	a821                	j	20163a <_ntoa_format+0x164>
  201624:	004f7513          	andi	a0,t5,4
  201628:	e519                	bnez	a0,201636 <_ntoa_format+0x160>
  20162a:	008f7513          	andi	a0,t5,8
  20162e:	c919                	beqz	a0,201644 <_ntoa_format+0x16e>
  201630:	02000513          	li	a0,32
  201634:	a019                	j	20163a <_ntoa_format+0x164>
  201636:	02b00513          	li	a0,43
  20163a:	016a85b3          	add	a1,s5,s6
  20163e:	0b05                	addi	s6,s6,1
  201640:	00a58023          	sb	a0,0(a1)
  201644:	003f7513          	andi	a0,t5,3
  201648:	864e                	mv	a2,s3
  20164a:	e515                	bnez	a0,201676 <_ntoa_format+0x1a0>
  20164c:	020a1513          	slli	a0,s4,0x20
  201650:	9101                	srli	a0,a0,0x20
  201652:	864e                	mv	a2,s3
  201654:	02ab7163          	bgeu	s6,a0,201676 <_ntoa_format+0x1a0>
  201658:	41650433          	sub	s0,a0,s6
  20165c:	86ce                	mv	a3,s3
  20165e:	00168493          	addi	s1,a3,1
  201662:	02000513          	li	a0,32
  201666:	85de                	mv	a1,s7
  201668:	8636                	mv	a2,a3
  20166a:	86ca                	mv	a3,s2
  20166c:	9c02                	jalr	s8
  20166e:	8626                	mv	a2,s1
  201670:	147d                	addi	s0,s0,-1
  201672:	86a6                	mv	a3,s1
  201674:	f46d                	bnez	s0,20165e <_ntoa_format+0x188>
  201676:	020b0563          	beqz	s6,2016a0 <_ntoa_format+0x1ca>
  20167a:	41600433          	neg	s0,s6
  20167e:	015b04b3          	add	s1,s6,s5
  201682:	14fd                	addi	s1,s1,-1
  201684:	0004c503          	lbu	a0,0(s1)
  201688:	00160a93          	addi	s5,a2,1
  20168c:	85de                	mv	a1,s7
  20168e:	86ca                	mv	a3,s2
  201690:	9c02                	jalr	s8
  201692:	0405                	addi	s0,s0,1
  201694:	14fd                	addi	s1,s1,-1
  201696:	8656                	mv	a2,s5
  201698:	f475                	bnez	s0,201684 <_ntoa_format+0x1ae>
  20169a:	000c9663          	bnez	s9,2016a6 <_ntoa_format+0x1d0>
  20169e:	a81d                	j	2016d4 <_ntoa_format+0x1fe>
  2016a0:	8ab2                	mv	s5,a2
  2016a2:	020c8963          	beqz	s9,2016d4 <_ntoa_format+0x1fe>
  2016a6:	1a02                	slli	s4,s4,0x20
  2016a8:	020a5a13          	srli	s4,s4,0x20
  2016ac:	413a8533          	sub	a0,s5,s3
  2016b0:	03457263          	bgeu	a0,s4,2016d4 <_ntoa_format+0x1fe>
  2016b4:	413004b3          	neg	s1,s3
  2016b8:	001a8413          	addi	s0,s5,1
  2016bc:	02000513          	li	a0,32
  2016c0:	85de                	mv	a1,s7
  2016c2:	8656                	mv	a2,s5
  2016c4:	86ca                	mv	a3,s2
  2016c6:	9c02                	jalr	s8
  2016c8:	00848533          	add	a0,s1,s0
  2016cc:	8aa2                	mv	s5,s0
  2016ce:	ff4565e3          	bltu	a0,s4,2016b8 <_ntoa_format+0x1e2>
  2016d2:	a011                	j	2016d6 <_ntoa_format+0x200>
  2016d4:	8456                	mv	s0,s5
  2016d6:	8522                	mv	a0,s0
  2016d8:	60e6                	ld	ra,88(sp)
  2016da:	6446                	ld	s0,80(sp)
  2016dc:	64a6                	ld	s1,72(sp)
  2016de:	6906                	ld	s2,64(sp)
  2016e0:	79e2                	ld	s3,56(sp)
  2016e2:	7a42                	ld	s4,48(sp)
  2016e4:	7aa2                	ld	s5,40(sp)
  2016e6:	7b02                	ld	s6,32(sp)
  2016e8:	6be2                	ld	s7,24(sp)
  2016ea:	6c42                	ld	s8,16(sp)
  2016ec:	6ca2                	ld	s9,8(sp)
  2016ee:	6125                	addi	sp,sp,96
  2016f0:	8082                	ret

00000000002016f2 <_out_rev>:
  2016f2:	711d                	addi	sp,sp,-96
  2016f4:	ec86                	sd	ra,88(sp)
  2016f6:	e8a2                	sd	s0,80(sp)
  2016f8:	e4a6                	sd	s1,72(sp)
  2016fa:	e0ca                	sd	s2,64(sp)
  2016fc:	fc4e                	sd	s3,56(sp)
  2016fe:	f852                	sd	s4,48(sp)
  201700:	f456                	sd	s5,40(sp)
  201702:	f05a                	sd	s6,32(sp)
  201704:	ec5e                	sd	s7,24(sp)
  201706:	e862                	sd	s8,16(sp)
  201708:	e466                	sd	s9,8(sp)
  20170a:	8cc6                	mv	s9,a7
  20170c:	8a42                	mv	s4,a6
  20170e:	8abe                	mv	s5,a5
  201710:	8b3a                	mv	s6,a4
  201712:	8936                	mv	s2,a3
  201714:	89b2                	mv	s3,a2
  201716:	8bae                	mv	s7,a1
  201718:	8c2a                	mv	s8,a0
  20171a:	0038f513          	andi	a0,a7,3
  20171e:	e515                	bnez	a0,20174a <_out_rev+0x58>
  201720:	020a1513          	slli	a0,s4,0x20
  201724:	9101                	srli	a0,a0,0x20
  201726:	864e                	mv	a2,s3
  201728:	02aaf163          	bgeu	s5,a0,20174a <_out_rev+0x58>
  20172c:	41550433          	sub	s0,a0,s5
  201730:	86ce                	mv	a3,s3
  201732:	00168493          	addi	s1,a3,1
  201736:	02000513          	li	a0,32
  20173a:	85de                	mv	a1,s7
  20173c:	8636                	mv	a2,a3
  20173e:	86ca                	mv	a3,s2
  201740:	9c02                	jalr	s8
  201742:	8626                	mv	a2,s1
  201744:	147d                	addi	s0,s0,-1
  201746:	86a6                	mv	a3,s1
  201748:	f46d                	bnez	s0,201732 <_out_rev+0x40>
  20174a:	002cfc93          	andi	s9,s9,2
  20174e:	020a8563          	beqz	s5,201778 <_out_rev+0x86>
  201752:	41500433          	neg	s0,s5
  201756:	016a84b3          	add	s1,s5,s6
  20175a:	14fd                	addi	s1,s1,-1
  20175c:	0004c503          	lbu	a0,0(s1)
  201760:	00160a93          	addi	s5,a2,1
  201764:	85de                	mv	a1,s7
  201766:	86ca                	mv	a3,s2
  201768:	9c02                	jalr	s8
  20176a:	0405                	addi	s0,s0,1
  20176c:	14fd                	addi	s1,s1,-1
  20176e:	8656                	mv	a2,s5
  201770:	f475                	bnez	s0,20175c <_out_rev+0x6a>
  201772:	000c9663          	bnez	s9,20177e <_out_rev+0x8c>
  201776:	a81d                	j	2017ac <_out_rev+0xba>
  201778:	8ab2                	mv	s5,a2
  20177a:	020c8963          	beqz	s9,2017ac <_out_rev+0xba>
  20177e:	1a02                	slli	s4,s4,0x20
  201780:	020a5a13          	srli	s4,s4,0x20
  201784:	413a8533          	sub	a0,s5,s3
  201788:	03457263          	bgeu	a0,s4,2017ac <_out_rev+0xba>
  20178c:	413004b3          	neg	s1,s3
  201790:	001a8413          	addi	s0,s5,1
  201794:	02000513          	li	a0,32
  201798:	85de                	mv	a1,s7
  20179a:	8656                	mv	a2,s5
  20179c:	86ca                	mv	a3,s2
  20179e:	9c02                	jalr	s8
  2017a0:	00848533          	add	a0,s1,s0
  2017a4:	8aa2                	mv	s5,s0
  2017a6:	ff4565e3          	bltu	a0,s4,201790 <_out_rev+0x9e>
  2017aa:	a011                	j	2017ae <_out_rev+0xbc>
  2017ac:	8456                	mv	s0,s5
  2017ae:	8522                	mv	a0,s0
  2017b0:	60e6                	ld	ra,88(sp)
  2017b2:	6446                	ld	s0,80(sp)
  2017b4:	64a6                	ld	s1,72(sp)
  2017b6:	6906                	ld	s2,64(sp)
  2017b8:	79e2                	ld	s3,56(sp)
  2017ba:	7a42                	ld	s4,48(sp)
  2017bc:	7aa2                	ld	s5,40(sp)
  2017be:	7b02                	ld	s6,32(sp)
  2017c0:	6be2                	ld	s7,24(sp)
  2017c2:	6c42                	ld	s8,16(sp)
  2017c4:	6ca2                	ld	s9,8(sp)
  2017c6:	6125                	addi	sp,sp,96
  2017c8:	8082                	ret

00000000002017ca <_sddf_putchar>:
  2017ca:	1141                	addi	sp,sp,-16
  2017cc:	e406                	sd	ra,8(sp)
  2017ce:	e022                	sd	s0,0(sp)
  2017d0:	002045b7          	lui	a1,0x204
  2017d4:	19858613          	addi	a2,a1,408 # 204198 <.L_MergedGlobals>
  2017d8:	6610                	ld	a2,8(a2)
  2017da:	00063803          	ld	a6,0(a2)
  2017de:	1985a403          	lw	s0,408(a1)
  2017e2:	4618                	lw	a4,8(a2)
  2017e4:	00482783          	lw	a5,4(a6)
  2017e8:	40f406bb          	subw	a3,s0,a5
  2017ec:	00e68763          	beq	a3,a4,2017fa <_sddf_putchar+0x30>
  2017f0:	40f405bb          	subw	a1,s0,a5
  2017f4:	2585                	addiw	a1,a1,1
  2017f6:	00e59663          	bne	a1,a4,201802 <_sddf_putchar+0x38>
  2017fa:	60a2                	ld	ra,8(sp)
  2017fc:	6402                	ld	s0,0(sp)
  2017fe:	0141                	addi	sp,sp,16
  201800:	8082                	ret
  201802:	45a9                	li	a1,10
  201804:	00b50763          	beq	a0,a1,201812 <_sddf_putchar+0x48>
  201808:	02e69e63          	bne	a3,a4,201844 <_sddf_putchar+0x7a>
  20180c:	06e69463          	bne	a3,a4,201874 <_sddf_putchar+0xaa>
  201810:	a895                	j	201884 <_sddf_putchar+0xba>
  201812:	6a0c                	ld	a1,16(a2)
  201814:	02e476bb          	remuw	a3,s0,a4
  201818:	4735                	li	a4,13
  20181a:	002047b7          	lui	a5,0x204
  20181e:	1682                	slli	a3,a3,0x20
  201820:	9281                	srli	a3,a3,0x20
  201822:	95b6                	add	a1,a1,a3
  201824:	00e58023          	sb	a4,0(a1)
  201828:	1987a403          	lw	s0,408(a5) # 204198 <.L_MergedGlobals>
  20182c:	00063803          	ld	a6,0(a2)
  201830:	0405                	addi	s0,s0,1
  201832:	1887ac23          	sw	s0,408(a5)
  201836:	4618                	lw	a4,8(a2)
  201838:	00482783          	lw	a5,4(a6)
  20183c:	40f406bb          	subw	a3,s0,a5
  201840:	fce686e3          	beq	a3,a4,20180c <_sddf_putchar+0x42>
  201844:	6a0c                	ld	a1,16(a2)
  201846:	02e476bb          	remuw	a3,s0,a4
  20184a:	00204737          	lui	a4,0x204
  20184e:	1682                	slli	a3,a3,0x20
  201850:	9281                	srli	a3,a3,0x20
  201852:	95b6                	add	a1,a1,a3
  201854:	00a58023          	sb	a0,0(a1)
  201858:	19872403          	lw	s0,408(a4) # 204198 <.L_MergedGlobals>
  20185c:	00063803          	ld	a6,0(a2)
  201860:	0405                	addi	s0,s0,1
  201862:	18872c23          	sw	s0,408(a4)
  201866:	4618                	lw	a4,8(a2)
  201868:	00482783          	lw	a5,4(a6)
  20186c:	40f406bb          	subw	a3,s0,a5
  201870:	00e68a63          	beq	a3,a4,201884 <_sddf_putchar+0xba>
  201874:	45a9                	li	a1,10
  201876:	00b50763          	beq	a0,a1,201884 <_sddf_putchar+0xba>
  20187a:	40f4053b          	subw	a0,s0,a5
  20187e:	2505                	addiw	a0,a0,1
  201880:	f6e51de3          	bne	a0,a4,2017fa <_sddf_putchar+0x30>
  201884:	00882023          	sw	s0,0(a6)
  201888:	00204537          	lui	a0,0x204
  20188c:	19c52403          	lw	s0,412(a0) # 20419c <tx_ch>
  201890:	03d00513          	li	a0,61
  201894:	02856663          	bltu	a0,s0,2018c0 <_sddf_putchar+0xf6>
  201898:	00204537          	lui	a0,0x204
  20189c:	11053503          	ld	a0,272(a0) # 204110 <microkit_notifications>
  2018a0:	00855533          	srl	a0,a0,s0
  2018a4:	8905                	andi	a0,a0,1
  2018a6:	cd09                	beqz	a0,2018c0 <_sddf_putchar+0xf6>
  2018a8:	1402                	slli	s0,s0,0x20
  2018aa:	02045513          	srli	a0,s0,0x20
  2018ae:	0529                	addi	a0,a0,10
  2018b0:	58ed                	li	a7,-5
  2018b2:	4581                	li	a1,0
  2018b4:	00000073          	ecall
  2018b8:	60a2                	ld	ra,8(sp)
  2018ba:	6402                	ld	s0,0(sp)
  2018bc:	0141                	addi	sp,sp,16
  2018be:	8082                	ret
  2018c0:	00204537          	lui	a0,0x204
  2018c4:	1a850513          	addi	a0,a0,424 # 2041a8 <microkit_name>
  2018c8:	27c000ef          	jal	201b44 <microkit_dbg_puts>
  2018cc:	00202537          	lui	a0,0x202
  2018d0:	f5e50513          	addi	a0,a0,-162 # 201f5e <_text_end+0x36>
  2018d4:	270000ef          	jal	201b44 <microkit_dbg_puts>
  2018d8:	8522                	mv	a0,s0
  2018da:	2d2000ef          	jal	201bac <microkit_dbg_put32>
  2018de:	00202537          	lui	a0,0x202
  2018e2:	fca50513          	addi	a0,a0,-54 # 201fca <_text_end+0xa2>
  2018e6:	60a2                	ld	ra,8(sp)
  2018e8:	6402                	ld	s0,0(sp)
  2018ea:	0141                	addi	sp,sp,16
  2018ec:	aca1                	j	201b44 <microkit_dbg_puts>

00000000002018ee <sddf_putchar_unbuffered>:
  2018ee:	1141                	addi	sp,sp,-16
  2018f0:	e406                	sd	ra,8(sp)
  2018f2:	e022                	sd	s0,0(sp)
  2018f4:	002045b7          	lui	a1,0x204
  2018f8:	19858613          	addi	a2,a1,408 # 204198 <.L_MergedGlobals>
  2018fc:	6610                	ld	a2,8(a2)
  2018fe:	621c                	ld	a5,0(a2)
  201900:	1985a683          	lw	a3,408(a1)
  201904:	4618                	lw	a4,8(a2)
  201906:	43dc                	lw	a5,4(a5)
  201908:	40f687bb          	subw	a5,a3,a5
  20190c:	04e78763          	beq	a5,a4,20195a <sddf_putchar_unbuffered+0x6c>
  201910:	6a1c                	ld	a5,16(a2)
  201912:	02e6f6bb          	remuw	a3,a3,a4
  201916:	1682                	slli	a3,a3,0x20
  201918:	9281                	srli	a3,a3,0x20
  20191a:	96be                	add	a3,a3,a5
  20191c:	00a68023          	sb	a0,0(a3)
  201920:	1985a503          	lw	a0,408(a1)
  201924:	6210                	ld	a2,0(a2)
  201926:	0505                	addi	a0,a0,1
  201928:	18a5ac23          	sw	a0,408(a1)
  20192c:	c208                	sw	a0,0(a2)
  20192e:	19c5a403          	lw	s0,412(a1)
  201932:	03d00513          	li	a0,61
  201936:	02856663          	bltu	a0,s0,201962 <sddf_putchar_unbuffered+0x74>
  20193a:	00204537          	lui	a0,0x204
  20193e:	11053503          	ld	a0,272(a0) # 204110 <microkit_notifications>
  201942:	00855533          	srl	a0,a0,s0
  201946:	8905                	andi	a0,a0,1
  201948:	cd09                	beqz	a0,201962 <sddf_putchar_unbuffered+0x74>
  20194a:	1402                	slli	s0,s0,0x20
  20194c:	02045513          	srli	a0,s0,0x20
  201950:	0529                	addi	a0,a0,10
  201952:	58ed                	li	a7,-5
  201954:	4581                	li	a1,0
  201956:	00000073          	ecall
  20195a:	60a2                	ld	ra,8(sp)
  20195c:	6402                	ld	s0,0(sp)
  20195e:	0141                	addi	sp,sp,16
  201960:	8082                	ret
  201962:	00204537          	lui	a0,0x204
  201966:	1a850513          	addi	a0,a0,424 # 2041a8 <microkit_name>
  20196a:	1da000ef          	jal	201b44 <microkit_dbg_puts>
  20196e:	00202537          	lui	a0,0x202
  201972:	f5e50513          	addi	a0,a0,-162 # 201f5e <_text_end+0x36>
  201976:	1ce000ef          	jal	201b44 <microkit_dbg_puts>
  20197a:	8522                	mv	a0,s0
  20197c:	230000ef          	jal	201bac <microkit_dbg_put32>
  201980:	00202537          	lui	a0,0x202
  201984:	fca50513          	addi	a0,a0,-54 # 201fca <_text_end+0xa2>
  201988:	60a2                	ld	ra,8(sp)
  20198a:	6402                	ld	s0,0(sp)
  20198c:	0141                	addi	sp,sp,16
  20198e:	aa5d                	j	201b44 <microkit_dbg_puts>

0000000000201990 <serial_putchar_init>:
  201990:	6190                	ld	a2,0(a1)
  201992:	002046b7          	lui	a3,0x204
  201996:	18a6ae23          	sw	a0,412(a3) # 20419c <tx_ch>
  20199a:	4208                	lw	a0,0(a2)
  20199c:	19868613          	addi	a2,a3,408
  2019a0:	e60c                	sd	a1,8(a2)
  2019a2:	18a6ac23          	sw	a0,408(a3)
  2019a6:	8082                	ret

00000000002019a8 <protected>:
  2019a8:	1141                	addi	sp,sp,-16
  2019aa:	00002517          	auipc	a0,0x2
  2019ae:	7fe50513          	addi	a0,a0,2046 # 2041a8 <microkit_name>

00000000002019b2 <.LVL1>:
  2019b2:	e406                	sd	ra,8(sp)
  2019b4:	190000ef          	jal	201b44 <microkit_dbg_puts>

00000000002019b8 <.LVL2>:
  2019b8:	00001517          	auipc	a0,0x1
  2019bc:	9c050513          	addi	a0,a0,-1600 # 202378 <_text_end+0x450>
  2019c0:	184000ef          	jal	201b44 <microkit_dbg_puts>

00000000002019c4 <.LBB120>:
  2019c4:	00002023          	sw	zero,0(zero) # 0 <.Lline_table_start0>
  2019c8:	9002                	ebreak

00000000002019ca <.LBE120>:
  2019ca:	1141                	addi	sp,sp,-16
  2019cc:	00002517          	auipc	a0,0x2
  2019d0:	7dc50513          	addi	a0,a0,2012 # 2041a8 <microkit_name>

00000000002019d4 <.LVL5>:
  2019d4:	e406                	sd	ra,8(sp)
  2019d6:	16e000ef          	jal	201b44 <microkit_dbg_puts>

00000000002019da <.LVL6>:
  2019da:	00001517          	auipc	a0,0x1
  2019de:	9d650513          	addi	a0,a0,-1578 # 2023b0 <_text_end+0x488>
  2019e2:	162000ef          	jal	201b44 <microkit_dbg_puts>

00000000002019e6 <.LBB122>:
  2019e6:	00002023          	sw	zero,0(zero) # 0 <.Lline_table_start0>
  2019ea:	9002                	ebreak

00000000002019ec <main>:
  2019ec:	715d                	addi	sp,sp,-80
  2019ee:	e0a2                	sd	s0,64(sp)
  2019f0:	f84a                	sd	s2,48(sp)

00000000002019f2 <.LBB245>:
  2019f2:	00001797          	auipc	a5,0x1
  2019f6:	60e78793          	addi	a5,a5,1550 # 203000 <counter_names>
  2019fa:	00001417          	auipc	s0,0x1
  2019fe:	60640413          	addi	s0,s0,1542 # 203000 <counter_names>

0000000000201a02 <.LBE245>:
  201a02:	e486                	sd	ra,72(sp)
  201a04:	fc26                	sd	s1,56(sp)
  201a06:	f44e                	sd	s3,40(sp)
  201a08:	f052                	sd	s4,32(sp)
  201a0a:	ec56                	sd	s5,24(sp)

0000000000201a0c <.LBB246>:
  201a0c:	40878933          	sub	s2,a5,s0

0000000000201a10 <.LBB240>:
  201a10:	00878b63          	beq	a5,s0,201a26 <.L7>
  201a14:	40395913          	srai	s2,s2,0x3

0000000000201a18 <.LVL9>:
  201a18:	4481                	li	s1,0

0000000000201a1a <.L8>:
  201a1a:	601c                	ld	a5,0(s0)
  201a1c:	0485                	addi	s1,s1,1

0000000000201a1e <.LVL11>:
  201a1e:	0421                	addi	s0,s0,8
  201a20:	9782                	jalr	a5

0000000000201a22 <.LVL12>:
  201a22:	ff24ece3          	bltu	s1,s2,201a1a <.L8>

0000000000201a26 <.L7>:
  201a26:	f1cfe0ef          	jal	200142 <init>

0000000000201a2a <.LVL14>:
  201a2a:	00002797          	auipc	a5,0x2
  201a2e:	7077c783          	lbu	a5,1799(a5) # 204131 <microkit_passive>
  201a32:	00002997          	auipc	s3,0x2
  201a36:	6fe98993          	addi	s3,s3,1790 # 204130 <microkit_have_signal>
  201a3a:	00002a97          	auipc	s5,0x2
  201a3e:	6eea8a93          	addi	s5,s5,1774 # 204128 <microkit_signal_cap>
  201a42:	cb99                	beqz	a5,201a58 <.L9>
  201a44:	4785                	li	a5,1
  201a46:	00f98023          	sb	a5,0(s3)
  201a4a:	00002797          	auipc	a5,0x2
  201a4e:	6c07bb23          	sd	zero,1750(a5) # 204120 <microkit_signal_msg>
  201a52:	4795                	li	a5,5
  201a54:	00fab023          	sd	a5,0(s5)

0000000000201a58 <.L9>:
  201a58:	4501                	li	a0,0
  201a5a:	00001917          	auipc	s2,0x1
  201a5e:	60690913          	addi	s2,s2,1542 # 203060 <__sel4_ipc_buffer>
  201a62:	00002a17          	auipc	s4,0x2
  201a66:	6bea0a13          	addi	s4,s4,1726 # 204120 <microkit_signal_msg>

0000000000201a6a <.L18>:
  201a6a:	e121                	bnez	a0,201aaa <.L16>

0000000000201a6c <.L10>:
  201a6c:	0009c783          	lbu	a5,0(s3)
  201a70:	ebd1                	bnez	a5,201b04 <.L30>

0000000000201a72 <.LBB251>:
  201a72:	4505                	li	a0,1
  201a74:	4811                	li	a6,4
  201a76:	58e5                	li	a7,-7
  201a78:	00000073          	ecall

0000000000201a7c <.LBB258>:
  201a7c:	00093803          	ld	a6,0(s2)

0000000000201a80 <.LBB272>:
  201a80:	842a                	mv	s0,a0

0000000000201a82 <.LBB265>:
  201a82:	00c83423          	sd	a2,8(a6)

0000000000201a86 <.LBB274>:
  201a86:	00d83823          	sd	a3,16(a6)

0000000000201a8a <.LBB277>:
  201a8a:	00e83c23          	sd	a4,24(a6)

0000000000201a8e <.LBB280>:
  201a8e:	02f83023          	sd	a5,32(a6)

0000000000201a92 <.L11>:
  201a92:	00141793          	slli	a5,s0,0x1
  201a96:	0407c563          	bltz	a5,201ae0 <.L31>

0000000000201a9a <.L13>:
  201a9a:	4481                	li	s1,0

0000000000201a9c <.LBE294>:
  201a9c:	06045063          	bgez	s0,201afc <.L15>

0000000000201aa0 <.LVL24>:
  201aa0:	03f47513          	andi	a0,s0,63
  201aa4:	f05ff0ef          	jal	2019a8 <protected>

0000000000201aa8 <.LVL25>:
  201aa8:	e42a                	sd	a0,8(sp)

0000000000201aaa <.L16>:
  201aaa:	00093783          	ld	a5,0(s2)

0000000000201aae <.LBB301>:
  201aae:	65a2                	ld	a1,8(sp)
  201ab0:	4505                	li	a0,1
  201ab2:	6790                	ld	a2,8(a5)
  201ab4:	6b94                	ld	a3,16(a5)
  201ab6:	6f98                	ld	a4,24(a5)
  201ab8:	4811                	li	a6,4
  201aba:	739c                	ld	a5,32(a5)

0000000000201abc <.LVL28>:
  201abc:	58f9                	li	a7,-2
  201abe:	00000073          	ecall

0000000000201ac2 <.LBB266>:
  201ac2:	00093803          	ld	a6,0(s2)

0000000000201ac6 <.LBB286>:
  201ac6:	842a                	mv	s0,a0

0000000000201ac8 <.LBB267>:
  201ac8:	02f83023          	sd	a5,32(a6)

0000000000201acc <.LBB289>:
  201acc:	00c83423          	sd	a2,8(a6)

0000000000201ad0 <.LBB290>:
  201ad0:	00d83823          	sd	a3,16(a6)

0000000000201ad4 <.LBB291>:
  201ad4:	00e83c23          	sd	a4,24(a6)

0000000000201ad8 <.LBB292>:
  201ad8:	00141793          	slli	a5,s0,0x1
  201adc:	fa07dfe3          	bgez	a5,201a9a <.L13>

0000000000201ae0 <.L31>:
  201ae0:	0030                	addi	a2,sp,8
  201ae2:	0ff47513          	zext.b	a0,s0
  201ae6:	f10fe0ef          	jal	2001f6 <fault>

0000000000201aea <.LVL36>:
  201aea:	00a03533          	snez	a0,a0

0000000000201aee <.LVL37>:
  201aee:	bfb5                	j	201a6a <.L18>

0000000000201af0 <.L32>:
  201af0:	8526                	mv	a0,s1
  201af2:	d1afe0ef          	jal	20000c <notified>

0000000000201af6 <.L17>:
  201af6:	8005                	srli	s0,s0,0x1
  201af8:	2485                	addiw	s1,s1,1

0000000000201afa <.LVL41>:
  201afa:	d82d                	beqz	s0,201a6c <.L10>

0000000000201afc <.L15>:
  201afc:	00147793          	andi	a5,s0,1
  201b00:	dbfd                	beqz	a5,201af6 <.L17>
  201b02:	b7fd                	j	201af0 <.L32>

0000000000201b04 <.L30>:
  201b04:	00093783          	ld	a5,0(s2)

0000000000201b08 <.LBB318>:
  201b08:	000a3583          	ld	a1,0(s4)
  201b0c:	000ab283          	ld	t0,0(s5)
  201b10:	6790                	ld	a2,8(a5)
  201b12:	6b94                	ld	a3,16(a5)
  201b14:	6f98                	ld	a4,24(a5)
  201b16:	4505                	li	a0,1
  201b18:	739c                	ld	a5,32(a5)

0000000000201b1a <.LVL45>:
  201b1a:	4811                	li	a6,4
  201b1c:	58f5                	li	a7,-3
  201b1e:	00000073          	ecall

0000000000201b22 <.LBB327>:
  201b22:	00093803          	ld	a6,0(s2)

0000000000201b26 <.LBB335>:
  201b26:	842a                	mv	s0,a0

0000000000201b28 <.LBB332>:
  201b28:	02f83023          	sd	a5,32(a6)

0000000000201b2c <.LBB340>:
  201b2c:	00c83423          	sd	a2,8(a6)

0000000000201b30 <.LBB341>:
  201b30:	00d83823          	sd	a3,16(a6)

0000000000201b34 <.LBB343>:
  201b34:	00e83c23          	sd	a4,24(a6)

0000000000201b38 <.LBB345>:
  201b38:	00002797          	auipc	a5,0x2
  201b3c:	5e078c23          	sb	zero,1528(a5) # 204130 <microkit_have_signal>
  201b40:	bf89                	j	201a92 <.L11>

0000000000201b42 <microkit_dbg_putc>:
  201b42:	8082                	ret

0000000000201b44 <microkit_dbg_puts>:
  201b44:	00054783          	lbu	a5,0(a0)
  201b48:	c789                	beqz	a5,201b52 <.L3>

0000000000201b4a <.L5>:
  201b4a:	00154783          	lbu	a5,1(a0)
  201b4e:	0505                	addi	a0,a0,1

0000000000201b50 <.LVL2>:
  201b50:	ffed                	bnez	a5,201b4a <.L5>

0000000000201b52 <.L3>:
  201b52:	8082                	ret

0000000000201b54 <microkit_dbg_put8>:
  201b54:	4729                	li	a4,10
  201b56:	02e577bb          	remuw	a5,a0,a4

0000000000201b5a <.LBE24>:
  201b5a:	1141                	addi	sp,sp,-16
  201b5c:	000105a3          	sb	zero,11(sp)

0000000000201b60 <.LBB25>:
  201b60:	4625                	li	a2,9

0000000000201b62 <.LBB26>:
  201b62:	4689                	li	a3,2
  201b64:	0307879b          	addiw	a5,a5,48
  201b68:	00f10523          	sb	a5,10(sp)

0000000000201b6c <.LBE26>:
  201b6c:	02a67863          	bgeu	a2,a0,201b9c <.L11>

0000000000201b70 <.LBB27>:
  201b70:	02e557bb          	divuw	a5,a0,a4

0000000000201b74 <.LBE27>:
  201b74:	06300593          	li	a1,99

0000000000201b78 <.LBB28>:
  201b78:	4685                	li	a3,1
  201b7a:	02e7f63b          	remuw	a2,a5,a4
  201b7e:	0ff7f793          	zext.b	a5,a5

0000000000201b82 <.LBB29>:
  201b82:	0306061b          	addiw	a2,a2,48
  201b86:	00c104a3          	sb	a2,9(sp)

0000000000201b8a <.LBE29>:
  201b8a:	00a5f963          	bgeu	a1,a0,201b9c <.L11>

0000000000201b8e <.LBB30>:
  201b8e:	02e7d7bb          	divuw	a5,a5,a4

0000000000201b92 <.LBE30>:
  201b92:	4681                	li	a3,0

0000000000201b94 <.LBB31>:
  201b94:	0307879b          	addiw	a5,a5,48
  201b98:	00f10423          	sb	a5,8(sp)

0000000000201b9c <.L11>:
  201b9c:	003c                	addi	a5,sp,8
  201b9e:	97b6                	add	a5,a5,a3

0000000000201ba0 <.L12>:
  201ba0:	0017c703          	lbu	a4,1(a5)
  201ba4:	0785                	addi	a5,a5,1
  201ba6:	ff6d                	bnez	a4,201ba0 <.L12>

0000000000201ba8 <.LBE32>:
  201ba8:	0141                	addi	sp,sp,16
  201baa:	8082                	ret

0000000000201bac <microkit_dbg_put32>:
  201bac:	4729                	li	a4,10
  201bae:	02e577bb          	remuw	a5,a0,a4

0000000000201bb2 <.LBE34>:
  201bb2:	1141                	addi	sp,sp,-16
  201bb4:	00010523          	sb	zero,10(sp)

0000000000201bb8 <.LBB35>:
  201bb8:	46a5                	li	a3,9

0000000000201bba <.LBB36>:
  201bba:	0307879b          	addiw	a5,a5,48
  201bbe:	00f104a3          	sb	a5,9(sp)
  201bc2:	02e557bb          	divuw	a5,a0,a4

0000000000201bc6 <.LBE36>:
  201bc6:	0ea6fa63          	bgeu	a3,a0,201cba <.L20>

0000000000201bca <.LBB37>:
  201bca:	06300613          	li	a2,99

0000000000201bce <.LBB38>:
  201bce:	02e7f6bb          	remuw	a3,a5,a4
  201bd2:	0306869b          	addiw	a3,a3,48
  201bd6:	00d10423          	sb	a3,8(sp)
  201bda:	02e7d7bb          	divuw	a5,a5,a4

0000000000201bde <.LBE38>:
  201bde:	0ea67063          	bgeu	a2,a0,201cbe <.L21>

0000000000201be2 <.LBB39>:
  201be2:	3e700613          	li	a2,999

0000000000201be6 <.LBB40>:
  201be6:	02e7f6bb          	remuw	a3,a5,a4
  201bea:	0306869b          	addiw	a3,a3,48
  201bee:	00d103a3          	sb	a3,7(sp)
  201bf2:	02e7d7bb          	divuw	a5,a5,a4

0000000000201bf6 <.LBE40>:
  201bf6:	0ca67663          	bgeu	a2,a0,201cc2 <.L22>

0000000000201bfa <.LBB41>:
  201bfa:	6689                	lui	a3,0x2
  201bfc:	70f68693          	addi	a3,a3,1807 # 270f <.LLST5+0x4e>

0000000000201c00 <.LBB42>:
  201c00:	02e7f63b          	remuw	a2,a5,a4
  201c04:	0306061b          	addiw	a2,a2,48
  201c08:	00c10323          	sb	a2,6(sp)
  201c0c:	02e7d7bb          	divuw	a5,a5,a4

0000000000201c10 <.LBE42>:
  201c10:	0aa6fb63          	bgeu	a3,a0,201cc6 <.L23>

0000000000201c14 <.LBB43>:
  201c14:	66e1                	lui	a3,0x18
  201c16:	69f68693          	addi	a3,a3,1695 # 1869f <.Ldebug_info0+0x14ade>

0000000000201c1a <.LBB44>:
  201c1a:	02e7f63b          	remuw	a2,a5,a4
  201c1e:	0306061b          	addiw	a2,a2,48
  201c22:	00c102a3          	sb	a2,5(sp)
  201c26:	02e7d7bb          	divuw	a5,a5,a4

0000000000201c2a <.LBE44>:
  201c2a:	0aa6f063          	bgeu	a3,a0,201cca <.L24>

0000000000201c2e <.LBB45>:
  201c2e:	000f46b7          	lui	a3,0xf4
  201c32:	23f68693          	addi	a3,a3,575 # f423f <.Ldebug_info0+0xf067e>

0000000000201c36 <.LBB46>:
  201c36:	02e7f63b          	remuw	a2,a5,a4
  201c3a:	0306061b          	addiw	a2,a2,48
  201c3e:	00c10223          	sb	a2,4(sp)
  201c42:	02e7d7bb          	divuw	a5,a5,a4

0000000000201c46 <.LBE46>:
  201c46:	06a6f863          	bgeu	a3,a0,201cb6 <.L25>

0000000000201c4a <.LBB47>:
  201c4a:	009896b7          	lui	a3,0x989
  201c4e:	67f68693          	addi	a3,a3,1663 # 98967f <__sel4_ipc_buffer_obj+0x78467f>

0000000000201c52 <.LBB48>:
  201c52:	02e7f63b          	remuw	a2,a5,a4
  201c56:	0306061b          	addiw	a2,a2,48
  201c5a:	00c101a3          	sb	a2,3(sp)
  201c5e:	02e7d7bb          	divuw	a5,a5,a4

0000000000201c62 <.LBE48>:
  201c62:	06a6f663          	bgeu	a3,a0,201cce <.L26>

0000000000201c66 <.LBB49>:
  201c66:	05f5e6b7          	lui	a3,0x5f5e
  201c6a:	0ff68693          	addi	a3,a3,255 # 5f5e0ff <__sel4_ipc_buffer_obj+0x5d590ff>

0000000000201c6e <.LBB50>:
  201c6e:	02e7f63b          	remuw	a2,a5,a4
  201c72:	0306061b          	addiw	a2,a2,48
  201c76:	00c10123          	sb	a2,2(sp)
  201c7a:	02e7d7bb          	divuw	a5,a5,a4

0000000000201c7e <.LBE50>:
  201c7e:	04a6fa63          	bgeu	a3,a0,201cd2 <.L27>

0000000000201c82 <.LBB51>:
  201c82:	3b9ad6b7          	lui	a3,0x3b9ad
  201c86:	9ff68693          	addi	a3,a3,-1537 # 3b9ac9ff <__sel4_ipc_buffer_obj+0x3b7a79ff>

0000000000201c8a <.LBB52>:
  201c8a:	02e7f63b          	remuw	a2,a5,a4
  201c8e:	0306061b          	addiw	a2,a2,48
  201c92:	00c100a3          	sb	a2,1(sp)
  201c96:	02e7d7bb          	divuw	a5,a5,a4

0000000000201c9a <.LBE52>:
  201c9a:	02a6fe63          	bgeu	a3,a0,201cd6 <.L28>

0000000000201c9e <.LBB53>:
  201c9e:	0307879b          	addiw	a5,a5,48

0000000000201ca2 <.LVL32>:
  201ca2:	00f10023          	sb	a5,0(sp)

0000000000201ca6 <.LBE53>:
  201ca6:	4781                	li	a5,0

0000000000201ca8 <.L18>:
  201ca8:	978a                	add	a5,a5,sp

0000000000201caa <.L19>:
  201caa:	0017c703          	lbu	a4,1(a5)
  201cae:	0785                	addi	a5,a5,1
  201cb0:	ff6d                	bnez	a4,201caa <.L19>

0000000000201cb2 <.LBE54>:
  201cb2:	0141                	addi	sp,sp,16
  201cb4:	8082                	ret

0000000000201cb6 <.L25>:
  201cb6:	4791                	li	a5,4

0000000000201cb8 <.LVL38>:
  201cb8:	bfc5                	j	201ca8 <.L18>

0000000000201cba <.L20>:
  201cba:	47a5                	li	a5,9

0000000000201cbc <.LVL40>:
  201cbc:	b7f5                	j	201ca8 <.L18>

0000000000201cbe <.L21>:
  201cbe:	47a1                	li	a5,8

0000000000201cc0 <.LVL42>:
  201cc0:	b7e5                	j	201ca8 <.L18>

0000000000201cc2 <.L22>:
  201cc2:	479d                	li	a5,7

0000000000201cc4 <.LVL44>:
  201cc4:	b7d5                	j	201ca8 <.L18>

0000000000201cc6 <.L23>:
  201cc6:	4799                	li	a5,6

0000000000201cc8 <.LVL46>:
  201cc8:	b7c5                	j	201ca8 <.L18>

0000000000201cca <.L24>:
  201cca:	4795                	li	a5,5

0000000000201ccc <.LVL48>:
  201ccc:	bff1                	j	201ca8 <.L18>

0000000000201cce <.L26>:
  201cce:	478d                	li	a5,3

0000000000201cd0 <.LVL50>:
  201cd0:	bfe1                	j	201ca8 <.L18>

0000000000201cd2 <.L27>:
  201cd2:	4789                	li	a5,2

0000000000201cd4 <.LVL52>:
  201cd4:	bfd1                	j	201ca8 <.L18>

0000000000201cd6 <.L28>:
  201cd6:	4785                	li	a5,1

0000000000201cd8 <.LVL54>:
  201cd8:	bfc1                	j	201ca8 <.L18>

0000000000201cda <__assert_fail>:
  201cda:	00000797          	auipc	a5,0x0
  201cde:	6fe78793          	addi	a5,a5,1790 # 2023d8 <_text_end+0x4b0>

0000000000201ce2 <.L32>:
  201ce2:	0017c703          	lbu	a4,1(a5)
  201ce6:	0785                	addi	a5,a5,1
  201ce8:	ff6d                	bnez	a4,201ce2 <.L32>

0000000000201cea <.LBB61>:
  201cea:	00054783          	lbu	a5,0(a0)
  201cee:	c789                	beqz	a5,201cf8 <.L33>

0000000000201cf0 <.L34>:
  201cf0:	00154783          	lbu	a5,1(a0)
  201cf4:	0505                	addi	a0,a0,1
  201cf6:	ffed                	bnez	a5,201cf0 <.L34>

0000000000201cf8 <.L33>:
  201cf8:	0005c783          	lbu	a5,0(a1)
  201cfc:	c789                	beqz	a5,201d06 <.L35>

0000000000201cfe <.L36>:
  201cfe:	0015c783          	lbu	a5,1(a1)
  201d02:	0585                	addi	a1,a1,1
  201d04:	ffed                	bnez	a5,201cfe <.L36>

0000000000201d06 <.L35>:
  201d06:	0006c783          	lbu	a5,0(a3)
  201d0a:	c789                	beqz	a5,201d14 <.L31>

0000000000201d0c <.L38>:
  201d0c:	0016c783          	lbu	a5,1(a3)
  201d10:	0685                	addi	a3,a3,1
  201d12:	ffed                	bnez	a5,201d0c <.L38>

0000000000201d14 <.L31>:
  201d14:	8082                	ret

0000000000201d16 <.LFE309>:
	...

0000000000201d18 <.LJTI1_0>:
  201d18:	03fc                	addi	a5,sp,460
  201d1a:	0020                	addi	s0,sp,8
  201d1c:	0426                	slli	s0,s0,0x9
  201d1e:	0020                	addi	s0,sp,8
  201d20:	0426                	slli	s0,s0,0x9
  201d22:	0020                	addi	s0,sp,8
  201d24:	041a                	slli	s0,s0,0x6
  201d26:	0020                	addi	s0,sp,8
  201d28:	0426                	slli	s0,s0,0x9
  201d2a:	0020                	addi	s0,sp,8
  201d2c:	0426                	slli	s0,s0,0x9
  201d2e:	0020                	addi	s0,sp,8
  201d30:	0426                	slli	s0,s0,0x9
  201d32:	0020                	addi	s0,sp,8
  201d34:	0426                	slli	s0,s0,0x9
  201d36:	0020                	addi	s0,sp,8
  201d38:	0426                	slli	s0,s0,0x9
  201d3a:	0020                	addi	s0,sp,8
  201d3c:	0426                	slli	s0,s0,0x9
  201d3e:	0020                	addi	s0,sp,8
  201d40:	0426                	slli	s0,s0,0x9
  201d42:	0020                	addi	s0,sp,8
  201d44:	041e                	slli	s0,s0,0x7
  201d46:	0020                	addi	s0,sp,8
  201d48:	0426                	slli	s0,s0,0x9
  201d4a:	0020                	addi	s0,sp,8
  201d4c:	0422                	slli	s0,s0,0x8
  201d4e:	0020                	addi	s0,sp,8
  201d50:	0426                	slli	s0,s0,0x9
  201d52:	0020                	addi	s0,sp,8
  201d54:	0426                	slli	s0,s0,0x9
  201d56:	0020                	addi	s0,sp,8
  201d58:	03fe                	slli	t2,t2,0x1f
  201d5a:	0020                	addi	s0,sp,8

0000000000201d5c <.LJTI1_1>:
  201d5c:	05b6                	slli	a1,a1,0xd
  201d5e:	0020                	addi	s0,sp,8
  201d60:	0562                	slli	a0,a0,0x18
  201d62:	0020                	addi	s0,sp,8
  201d64:	05ca                	slli	a1,a1,0x12
  201d66:	0020                	addi	s0,sp,8
  201d68:	056c                	addi	a1,sp,652
  201d6a:	0020                	addi	s0,sp,8
  201d6c:	056c                	addi	a1,sp,652
  201d6e:	0020                	addi	s0,sp,8
  201d70:	056c                	addi	a1,sp,652
  201d72:	0020                	addi	s0,sp,8
  201d74:	0562                	slli	a0,a0,0x18
  201d76:	0020                	addi	s0,sp,8
  201d78:	056c                	addi	a1,sp,652
  201d7a:	0020                	addi	s0,sp,8
  201d7c:	056c                	addi	a1,sp,652
  201d7e:	0020                	addi	s0,sp,8
  201d80:	0562                	slli	a0,a0,0x18
  201d82:	0020                	addi	s0,sp,8

0000000000201d84 <.LJTI1_2>:
  201d84:	0674                	addi	a3,sp,780
  201d86:	0020                	addi	s0,sp,8
  201d88:	066e                	slli	a2,a2,0x1b
  201d8a:	0020                	addi	s0,sp,8
  201d8c:	066e                	slli	a2,a2,0x1b
  201d8e:	0020                	addi	s0,sp,8
  201d90:	066e                	slli	a2,a2,0x1b
  201d92:	0020                	addi	s0,sp,8
  201d94:	066e                	slli	a2,a2,0x1b
  201d96:	0020                	addi	s0,sp,8
  201d98:	066e                	slli	a2,a2,0x1b
  201d9a:	0020                	addi	s0,sp,8
  201d9c:	066e                	slli	a2,a2,0x1b
  201d9e:	0020                	addi	s0,sp,8
  201da0:	066e                	slli	a2,a2,0x1b
  201da2:	0020                	addi	s0,sp,8
  201da4:	066e                	slli	a2,a2,0x1b
  201da6:	0020                	addi	s0,sp,8
  201da8:	066e                	slli	a2,a2,0x1b
  201daa:	0020                	addi	s0,sp,8
  201dac:	066e                	slli	a2,a2,0x1b
  201dae:	0020                	addi	s0,sp,8
  201db0:	066e                	slli	a2,a2,0x1b
  201db2:	0020                	addi	s0,sp,8
  201db4:	066e                	slli	a2,a2,0x1b
  201db6:	0020                	addi	s0,sp,8
  201db8:	066e                	slli	a2,a2,0x1b
  201dba:	0020                	addi	s0,sp,8
  201dbc:	066e                	slli	a2,a2,0x1b
  201dbe:	0020                	addi	s0,sp,8
  201dc0:	066e                	slli	a2,a2,0x1b
  201dc2:	0020                	addi	s0,sp,8
  201dc4:	066e                	slli	a2,a2,0x1b
  201dc6:	0020                	addi	s0,sp,8
  201dc8:	066e                	slli	a2,a2,0x1b
  201dca:	0020                	addi	s0,sp,8
  201dcc:	066e                	slli	a2,a2,0x1b
  201dce:	0020                	addi	s0,sp,8
  201dd0:	066e                	slli	a2,a2,0x1b
  201dd2:	0020                	addi	s0,sp,8
  201dd4:	066e                	slli	a2,a2,0x1b
  201dd6:	0020                	addi	s0,sp,8
  201dd8:	066e                	slli	a2,a2,0x1b
  201dda:	0020                	addi	s0,sp,8
  201ddc:	066e                	slli	a2,a2,0x1b
  201dde:	0020                	addi	s0,sp,8
  201de0:	066e                	slli	a2,a2,0x1b
  201de2:	0020                	addi	s0,sp,8
  201de4:	066e                	slli	a2,a2,0x1b
  201de6:	0020                	addi	s0,sp,8
  201de8:	066e                	slli	a2,a2,0x1b
  201dea:	0020                	addi	s0,sp,8
  201dec:	066e                	slli	a2,a2,0x1b
  201dee:	0020                	addi	s0,sp,8
  201df0:	066e                	slli	a2,a2,0x1b
  201df2:	0020                	addi	s0,sp,8
  201df4:	066e                	slli	a2,a2,0x1b
  201df6:	0020                	addi	s0,sp,8
  201df8:	066e                	slli	a2,a2,0x1b
  201dfa:	0020                	addi	s0,sp,8
  201dfc:	066e                	slli	a2,a2,0x1b
  201dfe:	0020                	addi	s0,sp,8
  201e00:	066e                	slli	a2,a2,0x1b
  201e02:	0020                	addi	s0,sp,8
  201e04:	05e4                	addi	s1,sp,716
  201e06:	0020                	addi	s0,sp,8
  201e08:	060e                	slli	a2,a2,0x3
  201e0a:	0020                	addi	s0,sp,8
  201e0c:	05de                	slli	a1,a1,0x17
  201e0e:	0020                	addi	s0,sp,8
  201e10:	066e                	slli	a2,a2,0x1b
  201e12:	0020                	addi	s0,sp,8
  201e14:	066e                	slli	a2,a2,0x1b
  201e16:	0020                	addi	s0,sp,8
  201e18:	066e                	slli	a2,a2,0x1b
  201e1a:	0020                	addi	s0,sp,8
  201e1c:	066e                	slli	a2,a2,0x1b
  201e1e:	0020                	addi	s0,sp,8
  201e20:	066e                	slli	a2,a2,0x1b
  201e22:	0020                	addi	s0,sp,8
  201e24:	066e                	slli	a2,a2,0x1b
  201e26:	0020                	addi	s0,sp,8
  201e28:	066e                	slli	a2,a2,0x1b
  201e2a:	0020                	addi	s0,sp,8
  201e2c:	066e                	slli	a2,a2,0x1b
  201e2e:	0020                	addi	s0,sp,8
  201e30:	066e                	slli	a2,a2,0x1b
  201e32:	0020                	addi	s0,sp,8
  201e34:	066e                	slli	a2,a2,0x1b
  201e36:	0020                	addi	s0,sp,8
  201e38:	066e                	slli	a2,a2,0x1b
  201e3a:	0020                	addi	s0,sp,8
  201e3c:	066e                	slli	a2,a2,0x1b
  201e3e:	0020                	addi	s0,sp,8
  201e40:	066e                	slli	a2,a2,0x1b
  201e42:	0020                	addi	s0,sp,8
  201e44:	066e                	slli	a2,a2,0x1b
  201e46:	0020                	addi	s0,sp,8
  201e48:	066e                	slli	a2,a2,0x1b
  201e4a:	0020                	addi	s0,sp,8
  201e4c:	066e                	slli	a2,a2,0x1b
  201e4e:	0020                	addi	s0,sp,8
  201e50:	0592                	slli	a1,a1,0x4
  201e52:	0020                	addi	s0,sp,8
  201e54:	066e                	slli	a2,a2,0x1b
  201e56:	0020                	addi	s0,sp,8
  201e58:	066e                	slli	a2,a2,0x1b
  201e5a:	0020                	addi	s0,sp,8
  201e5c:	066e                	slli	a2,a2,0x1b
  201e5e:	0020                	addi	s0,sp,8
  201e60:	066e                	slli	a2,a2,0x1b
  201e62:	0020                	addi	s0,sp,8
  201e64:	066e                	slli	a2,a2,0x1b
  201e66:	0020                	addi	s0,sp,8
  201e68:	066e                	slli	a2,a2,0x1b
  201e6a:	0020                	addi	s0,sp,8
  201e6c:	066e                	slli	a2,a2,0x1b
  201e6e:	0020                	addi	s0,sp,8
  201e70:	066e                	slli	a2,a2,0x1b
  201e72:	0020                	addi	s0,sp,8
  201e74:	066e                	slli	a2,a2,0x1b
  201e76:	0020                	addi	s0,sp,8
  201e78:	068a                	slli	a3,a3,0x2
  201e7a:	0020                	addi	s0,sp,8
  201e7c:	0890                	addi	a2,sp,80
  201e7e:	0020                	addi	s0,sp,8
  201e80:	058c                	addi	a1,sp,704
  201e82:	0020                	addi	s0,sp,8
  201e84:	05e4                	addi	s1,sp,716
  201e86:	0020                	addi	s0,sp,8
  201e88:	060e                	slli	a2,a2,0x3
  201e8a:	0020                	addi	s0,sp,8
  201e8c:	05de                	slli	a1,a1,0x17
  201e8e:	0020                	addi	s0,sp,8
  201e90:	066e                	slli	a2,a2,0x1b
  201e92:	0020                	addi	s0,sp,8
  201e94:	058c                	addi	a1,sp,704
  201e96:	0020                	addi	s0,sp,8
  201e98:	066e                	slli	a2,a2,0x1b
  201e9a:	0020                	addi	s0,sp,8
  201e9c:	066e                	slli	a2,a2,0x1b
  201e9e:	0020                	addi	s0,sp,8
  201ea0:	066e                	slli	a2,a2,0x1b
  201ea2:	0020                	addi	s0,sp,8
  201ea4:	066e                	slli	a2,a2,0x1b
  201ea6:	0020                	addi	s0,sp,8
  201ea8:	066e                	slli	a2,a2,0x1b
  201eaa:	0020                	addi	s0,sp,8
  201eac:	068c                	addi	a1,sp,832
  201eae:	0020                	addi	s0,sp,8
  201eb0:	0646                	slli	a2,a2,0x11
  201eb2:	0020                	addi	s0,sp,8
  201eb4:	066e                	slli	a2,a2,0x1b
  201eb6:	0020                	addi	s0,sp,8
  201eb8:	066e                	slli	a2,a2,0x1b
  201eba:	0020                	addi	s0,sp,8
  201ebc:	07ee                	slli	a5,a5,0x1b
  201ebe:	0020                	addi	s0,sp,8
  201ec0:	066e                	slli	a2,a2,0x1b
  201ec2:	0020                	addi	s0,sp,8
  201ec4:	058c                	addi	a1,sp,704
  201ec6:	0020                	addi	s0,sp,8
  201ec8:	066e                	slli	a2,a2,0x1b
  201eca:	0020                	addi	s0,sp,8
  201ecc:	066e                	slli	a2,a2,0x1b
  201ece:	0020                	addi	s0,sp,8
  201ed0:	0592                	slli	a1,a1,0x4
  201ed2:	0020                	addi	s0,sp,8
  201ed4:	0000                	unimp
	...

0000000000201ed8 <_ftoa.pow10>:
  201ed8:	0000                	unimp
  201eda:	0000                	unimp
  201edc:	0000                	unimp
  201ede:	3ff0                	fld	fa2,248(a5)
  201ee0:	0000                	unimp
  201ee2:	0000                	unimp
  201ee4:	0000                	unimp
  201ee6:	4024                	lw	s1,64(s0)
  201ee8:	0000                	unimp
  201eea:	0000                	unimp
  201eec:	0000                	unimp
  201eee:	4059                	c.li	zero,22
  201ef0:	0000                	unimp
  201ef2:	0000                	unimp
  201ef4:	4000                	lw	s0,0(s0)
  201ef6:	0000408f          	.insn	4, 0x408f
  201efa:	0000                	unimp
  201efc:	8800                	.insn	2, 0x8800
  201efe:	000040c3          	fmadd.s	ft1,ft0,ft0,ft0,rmm
  201f02:	0000                	unimp
  201f04:	6a00                	ld	s0,16(a2)
  201f06:	40f8                	lw	a4,68(s1)
  201f08:	0000                	unimp
  201f0a:	0000                	unimp
  201f0c:	8480                	.insn	2, 0x8480
  201f0e:	412e                	lw	sp,200(sp)
  201f10:	0000                	unimp
  201f12:	0000                	unimp
  201f14:	12d0                	addi	a2,sp,356
  201f16:	00004163          	bltz	zero,201f18 <_ftoa.pow10+0x40>
  201f1a:	0000                	unimp
  201f1c:	d784                	sw	s1,40(a5)
  201f1e:	00004197          	auipc	gp,0x4
  201f22:	0000                	unimp
  201f24:	cd65                	beqz	a0,20201c <_text_end+0xf4>
  201f26:	41cd                	li	gp,19

Disassembly of section .serial_client_config:

0000000000203068 <serial_config>:
  203068:	46444473          	.insn	4, 0x46444473
  20306c:	00000003          	lb	zero,0(zero) # 0 <.Lline_table_start0>
	...
  203098:	0000                	unimp
  20309a:	2000                	fld	fs0,0(s0)
  20309c:	0000                	unimp
  20309e:	0000                	unimp
  2030a0:	1000                	addi	s0,sp,32
  2030a2:	0000                	unimp
  2030a4:	0000                	unimp
  2030a6:	0000                	unimp
  2030a8:	1000                	addi	s0,sp,32
  2030aa:	2000                	fld	fs0,0(s0)
  2030ac:	0000                	unimp
  2030ae:	0000                	unimp
  2030b0:	0000                	unimp
  2030b2:	0001                	nop
  2030b4:	0000                	unimp
  2030b6:	0000                	unimp
  2030b8:	00000003          	lb	zero,0(zero) # 0 <.Lline_table_start0>
  2030bc:	0000                	unimp
	...

Disassembly of section .benchmark_config:

00000000002030c0 <benchmark_config>:
  2030c0:	0100                	addi	s0,sp,128
  2030c2:	0a02                	c.slli64	s4
  2030c4:	69726573          	csrrsi	a0,0x697,4
  2030c8:	6c61                	lui	s8,0x18
  2030ca:	645f 6972 6576      	.insn	6, 0x65766972645f
  2030d0:	0072                	c.slli	zero,0x1c
	...
  203102:	0000                	unimp
  203104:	7300                	ld	s0,32(a4)
  203106:	7265                	lui	tp,0xffff9
  203108:	6169                	addi	sp,sp,208
  20310a:	5f6c                	lw	a1,124(a4)
  20310c:	6976                	ld	s2,344(sp)
  20310e:	7472                	ld	s0,312(sp)
  203110:	745f 0078 0000      	.insn	6, 0x0078745f
	...
  203142:	0000                	unimp
  203144:	0100                	addi	s0,sp,128
  203146:	7465                	lui	s0,0xffff9
  203148:	6568                	ld	a0,200(a0)
  20314a:	6e72                	ld	t3,280(sp)
  20314c:	7465                	lui	s0,0xffff9
  20314e:	645f 6972 6576      	.insn	6, 0x65766972645f
  203154:	0072                	c.slli	zero,0x1c
	...
  203186:	6e02                	ld	t3,0(sp)
  203188:	7465                	lui	s0,0xffff9
  20318a:	765f 7269 5f74      	.insn	6, 0x5f747269765f
  203190:	7874                	ld	a3,240(s0)
	...
  2031c6:	0300                	addi	s0,sp,384
  2031c8:	656e                	ld	a0,216(sp)
  2031ca:	5f74                	lw	a3,124(a4)
  2031cc:	6976                	ld	s2,344(sp)
  2031ce:	7472                	ld	s0,312(sp)
  2031d0:	725f 0078 0000      	.insn	6, 0x0078725f
	...
  203206:	0000                	unimp
  203208:	6304                	ld	s1,0(a4)
  20320a:	696c                	ld	a1,208(a0)
  20320c:	6e65                	lui	t3,0x19
  20320e:	3074                	fld	fa3,224(s0)
	...
  203248:	0500                	addi	s0,sp,640
  20324a:	65696c63          	bltu	s2,s6,2038a2 <__global_pointer$+0x42>
  20324e:	746e                	ld	s0,248(sp)
  203250:	5f30                	lw	a2,120(a4)
  203252:	656e                	ld	a0,216(sp)
  203254:	5f74                	lw	a3,124(a4)
  203256:	69706f63          	bltu	zero,s7,2038f4 <__global_pointer$+0x94>
  20325a:	7265                	lui	tp,0xffff9
	...
  203288:	0000                	unimp
  20328a:	6306                	ld	t1,64(sp)
  20328c:	696c                	ld	a1,208(a0)
  20328e:	6e65                	lui	t3,0x19
  203290:	3174                	fld	fa3,224(a0)
	...
  2032ca:	0700                	addi	s0,sp,896
  2032cc:	65696c63          	bltu	s2,s6,203924 <__global_pointer$+0xc4>
  2032d0:	746e                	ld	s0,248(sp)
  2032d2:	5f31                	li	t5,-20
  2032d4:	656e                	ld	a0,216(sp)
  2032d6:	5f74                	lw	a3,124(a4)
  2032d8:	69706f63          	bltu	zero,s7,203976 <__global_pointer$+0x116>
  2032dc:	7265                	lui	tp,0xffff9
	...
  20330a:	0000                	unimp
  20330c:	7408                	ld	a0,40(s0)
  20330e:	6d69                	lui	s10,0x1a
  203310:	7265                	lui	tp,0xffff9
  203312:	645f 6972 6576      	.insn	6, 0x65766972645f
  203318:	0072                	c.slli	zero,0x1c
	...
  20334a:	0000                	unimp
  20334c:	0900                	addi	s0,sp,144
	...
