
broken_eth_driver.elf:     file format elf64-littleriscv


Disassembly of section .text:

0000000000200000 <_start>:
  200000:	0000a197          	auipc	gp,0xa
  200004:	99818193          	addi	gp,gp,-1640 # 209998 <__global_pointer$>
  200008:	1f90706f          	j	207a00 <main>
	...

0000000000201000 <cml_main>:
  201000:	00000517          	auipc	a0,0x0
  201004:	0b050513          	addi	a0,a0,176 # 2010b0 <cml__Init_0>

0000000000201008 <.Lpcrel_hi1>:
  201008:	00008597          	auipc	a1,0x8
  20100c:	ff85b583          	ld	a1,-8(a1) # 209000 <__init_array_end>

0000000000201010 <.Lpcrel_hi2>:
  201010:	00008617          	auipc	a2,0x8
  201014:	ff863603          	ld	a2,-8(a2) # 209008 <cml_stack>

0000000000201018 <.Lpcrel_hi3>:
  201018:	00008697          	auipc	a3,0x8
  20101c:	ff86b683          	ld	a3,-8(a3) # 209010 <cml_stackend>
  201020:	7e10306f          	j	205000 <cml_enter>
  201024:	00000013          	nop
  201028:	00000013          	nop
  20102c:	00000013          	nop

0000000000201030 <cake_ffiTHREAD_MEMORY_RELEASE>:
  201030:	7fb0406f          	j	20602a <ffiTHREAD_MEMORY_RELEASE>
  201034:	00000013          	nop
  201038:	00000013          	nop
  20103c:	00000013          	nop

0000000000201040 <cake_ffiTHREAD_MEMORY_ACQUIRE>:
  201040:	7f10406f          	j	206030 <ffiTHREAD_MEMORY_ACQUIRE>
  201044:	00000013          	nop
  201048:	00000013          	nop
  20104c:	00000013          	nop

0000000000201050 <cake_ffimicrokit_notify>:
  201050:	0300506f          	j	206080 <ffimicrokit_notify>
  201054:	00000013          	nop
  201058:	00000013          	nop
  20105c:	00000013          	nop

0000000000201060 <cake_ffiassert>:
  201060:	7d70406f          	j	206036 <ffiassert>
  201064:	00000013          	nop
  201068:	00000013          	nop
  20106c:	00000013          	nop

0000000000201070 <cake_ffimicrokit_deferred_irq_ack>:
  201070:	0780506f          	j	2060e8 <ffimicrokit_deferred_irq_ack>
  201074:	00000013          	nop
  201078:	00000013          	nop
  20107c:	00000013          	nop

0000000000201080 <cake_ffidebug_print>:
  201080:	3e60506f          	j	206466 <ffidebug_print>
  201084:	00000013          	nop
  201088:	00000013          	nop
  20108c:	00000013          	nop

0000000000201090 <cake_clear>:
  201090:	02e0406f          	j	2050be <cml_exit>
  201094:	00000013          	nop
  201098:	00000013          	nop
  20109c:	00000013          	nop

00000000002010a0 <cake_exit>:
  2010a0:	7c10306f          	j	205060 <cml_return>
  2010a4:	00000013          	nop
  2010a8:	00000013          	nop
  2010ac:	00000013          	nop

00000000002010b0 <cml__Init_0>:
  2010b0:	00d6e0b3          	or	ra,a3,a3
  2010b4:	40b080b3          	sub	ra,ra,a1
  2010b8:	0040d093          	srli	ra,ra,0x4
  2010bc:	00309093          	slli	ra,ra,0x3
  2010c0:	00b080b3          	add	ra,ra,a1
  2010c4:	7f806293          	ori	t0,zero,2040
  2010c8:	005585b3          	add	a1,a1,t0
  2010cc:	405686b3          	sub	a3,a3,t0
  2010d0:	00b66863          	bltu	a2,a1,2010e0 <cml__Init_0+0x30>
  2010d4:	00c6f463          	bgeu	a3,a2,2010dc <cml__Init_0+0x2c>
  2010d8:	0010e633          	or	a2,ra,ra
  2010dc:	0080006f          	j	2010e4 <cml__Init_0+0x34>
  2010e0:	0010e633          	or	a2,ra,ra
  2010e4:	7f806093          	ori	ra,zero,2040
  2010e8:	401585b3          	sub	a1,a1,ra
  2010ec:	001686b3          	add	a3,a3,ra
  2010f0:	00c660b3          	or	ra,a2,a2
  2010f4:	40b080b3          	sub	ra,ra,a1
  2010f8:	00000fb7          	lui	t6,0x0
  2010fc:	ff8fcf93          	xori	t6,t6,-8
  201100:	ff0002b7          	lui	t0,0xff000
  201104:	00028293          	mv	t0,t0
  201108:	02029293          	slli	t0,t0,0x20
  20110c:	01f2c2b3          	xor	t0,t0,t6
  201110:	0012f663          	bgeu	t0,ra,20111c <cml__Init_0+0x6c>
  201114:	00b5e633          	or	a2,a1,a1
  201118:	00560633          	add	a2,a2,t0
  20111c:	40b60633          	sub	a2,a2,a1
  201120:	00465613          	srli	a2,a2,0x4
  201124:	00461613          	slli	a2,a2,0x4
  201128:	00b60633          	add	a2,a2,a1
  20112c:	00c662b3          	or	t0,a2,a2
  201130:	40b282b3          	sub	t0,t0,a1
  201134:	0012d293          	srli	t0,t0,0x1
  201138:	00b5ed33          	or	s10,a1,a1
  20113c:	005585b3          	add	a1,a1,t0
  201140:	00d6ec33          	or	s8,a3,a3
  201144:	00c66cb3          	or	s9,a2,a2
  201148:	000d3603          	ld	a2,0(s10)
  20114c:	00365613          	srli	a2,a2,0x3
  201150:	01ad60b3          	or	ra,s10,s10
  201154:	00808093          	addi	ra,ra,8
  201158:	0000b683          	ld	a3,0(ra)
  20115c:	00808093          	addi	ra,ra,8
  201160:	0000b303          	ld	t1,0(ra)
  201164:	00808093          	addi	ra,ra,8
  201168:	0000b383          	ld	t2,0(ra)
  20116c:	00808093          	addi	ra,ra,8
  201170:	0000b503          	ld	a0,0(ra)
  201174:	00806093          	ori	ra,zero,8
  201178:	401c0c33          	sub	s8,s8,ra
  20117c:	00006093          	ori	ra,zero,0
  201180:	001c3023          	sd	ra,0(s8)
  201184:	00006093          	ori	ra,zero,0
  201188:	001cb023          	sd	ra,0(s9)
  20118c:	008c8c93          	addi	s9,s9,8
  201190:	00006093          	ori	ra,zero,0
  201194:	001cb023          	sd	ra,0(s9)
  201198:	008c8c93          	addi	s9,s9,8
  20119c:	00006093          	ori	ra,zero,0
  2011a0:	001cb023          	sd	ra,0(s9)
  2011a4:	008c8c93          	addi	s9,s9,8
  2011a8:	00006093          	ori	ra,zero,0
  2011ac:	001cb023          	sd	ra,0(s9)
  2011b0:	008c8c93          	addi	s9,s9,8
  2011b4:	00006093          	ori	ra,zero,0
  2011b8:	001cb023          	sd	ra,0(s9)
  2011bc:	008c8c93          	addi	s9,s9,8
  2011c0:	00006093          	ori	ra,zero,0
  2011c4:	001cb023          	sd	ra,0(s9)
  2011c8:	008c8c93          	addi	s9,s9,8
  2011cc:	00006093          	ori	ra,zero,0
  2011d0:	001cb023          	sd	ra,0(s9)
  2011d4:	008c8c93          	addi	s9,s9,8
  2011d8:	00006093          	ori	ra,zero,0
  2011dc:	001cb023          	sd	ra,0(s9)
  2011e0:	008c8c93          	addi	s9,s9,8
  2011e4:	00006093          	ori	ra,zero,0
  2011e8:	001cb023          	sd	ra,0(s9)
  2011ec:	008c8c93          	addi	s9,s9,8
  2011f0:	00006093          	ori	ra,zero,0
  2011f4:	001cb023          	sd	ra,0(s9)
  2011f8:	008c8c93          	addi	s9,s9,8
  2011fc:	00006093          	ori	ra,zero,0
  201200:	001cb023          	sd	ra,0(s9)
  201204:	008c8c93          	addi	s9,s9,8
  201208:	00006093          	ori	ra,zero,0
  20120c:	001cb023          	sd	ra,0(s9)
  201210:	008c8c93          	addi	s9,s9,8
  201214:	00006093          	ori	ra,zero,0
  201218:	001cb023          	sd	ra,0(s9)
  20121c:	008c8c93          	addi	s9,s9,8
  201220:	00006093          	ori	ra,zero,0
  201224:	001cb023          	sd	ra,0(s9)
  201228:	008c8c93          	addi	s9,s9,8
  20122c:	00006093          	ori	ra,zero,0
  201230:	001cb023          	sd	ra,0(s9)
  201234:	008c8c93          	addi	s9,s9,8
  201238:	00006093          	ori	ra,zero,0
  20123c:	001cb023          	sd	ra,0(s9)
  201240:	008c8c93          	addi	s9,s9,8
  201244:	00006093          	ori	ra,zero,0
  201248:	001cb023          	sd	ra,0(s9)
  20124c:	008c8c93          	addi	s9,s9,8
  201250:	00006093          	ori	ra,zero,0
  201254:	001cb023          	sd	ra,0(s9)
  201258:	008c8c93          	addi	s9,s9,8
  20125c:	00006093          	ori	ra,zero,0
  201260:	001cb023          	sd	ra,0(s9)
  201264:	008c8c93          	addi	s9,s9,8
  201268:	00006093          	ori	ra,zero,0
  20126c:	001cb023          	sd	ra,0(s9)
  201270:	008c8c93          	addi	s9,s9,8
  201274:	00006093          	ori	ra,zero,0
  201278:	001cb023          	sd	ra,0(s9)
  20127c:	008c8c93          	addi	s9,s9,8
  201280:	00006093          	ori	ra,zero,0
  201284:	001cb023          	sd	ra,0(s9)
  201288:	008c8c93          	addi	s9,s9,8
  20128c:	00006093          	ori	ra,zero,0
  201290:	001cb023          	sd	ra,0(s9)
  201294:	008c8c93          	addi	s9,s9,8
  201298:	00006093          	ori	ra,zero,0
  20129c:	001cb023          	sd	ra,0(s9)
  2012a0:	008c8c93          	addi	s9,s9,8
  2012a4:	00006093          	ori	ra,zero,0
  2012a8:	001cb023          	sd	ra,0(s9)
  2012ac:	008c8c93          	addi	s9,s9,8
  2012b0:	00006093          	ori	ra,zero,0
  2012b4:	001cb023          	sd	ra,0(s9)
  2012b8:	008c8c93          	addi	s9,s9,8
  2012bc:	00006093          	ori	ra,zero,0
  2012c0:	001cb023          	sd	ra,0(s9)
  2012c4:	008c8c93          	addi	s9,s9,8
  2012c8:	00006093          	ori	ra,zero,0
  2012cc:	001cb023          	sd	ra,0(s9)
  2012d0:	008c8c93          	addi	s9,s9,8
  2012d4:	00006093          	ori	ra,zero,0
  2012d8:	001cb023          	sd	ra,0(s9)
  2012dc:	008c8c93          	addi	s9,s9,8
  2012e0:	00006093          	ori	ra,zero,0
  2012e4:	001cb023          	sd	ra,0(s9)
  2012e8:	008c8c93          	addi	s9,s9,8
  2012ec:	00006093          	ori	ra,zero,0
  2012f0:	001cb023          	sd	ra,0(s9)
  2012f4:	008c8c93          	addi	s9,s9,8
  2012f8:	00006093          	ori	ra,zero,0
  2012fc:	001cb023          	sd	ra,0(s9)
  201300:	008c8c93          	addi	s9,s9,8
  201304:	006cb023          	sd	t1,0(s9)
  201308:	008c8c93          	addi	s9,s9,8
  20130c:	00dcb023          	sd	a3,0(s9)
  201310:	008c8c93          	addi	s9,s9,8
  201314:	00acb023          	sd	a0,0(s9)
  201318:	008c8c93          	addi	s9,s9,8
  20131c:	007cb023          	sd	t2,0(s9)
  201320:	008c8c93          	addi	s9,s9,8
  201324:	00006093          	ori	ra,zero,0
  201328:	001cb023          	sd	ra,0(s9)
  20132c:	008c8c93          	addi	s9,s9,8
  201330:	00ccb023          	sd	a2,0(s9)
  201334:	008c8c93          	addi	s9,s9,8
  201338:	00006093          	ori	ra,zero,0
  20133c:	001cb023          	sd	ra,0(s9)
  201340:	008c8c93          	addi	s9,s9,8
  201344:	01acb023          	sd	s10,0(s9)
  201348:	008c8c93          	addi	s9,s9,8
  20134c:	00006093          	ori	ra,zero,0
  201350:	001cb023          	sd	ra,0(s9)
  201354:	008c8c93          	addi	s9,s9,8
  201358:	00006093          	ori	ra,zero,0
  20135c:	001cb023          	sd	ra,0(s9)
  201360:	008c8c93          	addi	s9,s9,8
  201364:	00006093          	ori	ra,zero,0
  201368:	001cb023          	sd	ra,0(s9)
  20136c:	008c8c93          	addi	s9,s9,8
  201370:	00bcb023          	sd	a1,0(s9)
  201374:	008c8c93          	addi	s9,s9,8
  201378:	00bcb023          	sd	a1,0(s9)
  20137c:	008c8c93          	addi	s9,s9,8
  201380:	005cb023          	sd	t0,0(s9)
  201384:	008c8c93          	addi	s9,s9,8
  201388:	00bcb023          	sd	a1,0(s9)
  20138c:	008c8c93          	addi	s9,s9,8
  201390:	01acb023          	sd	s10,0(s9)
  201394:	008c8c93          	addi	s9,s9,8
  201398:	00000097          	auipc	ra,0x0
  20139c:	00c08093          	addi	ra,ra,12 # 2013a4 <cml__Halt0_1>
  2013a0:	42c0006f          	j	2017cc <cml_generated_main_6>

00000000002013a4 <cml__Halt0_1>:
  2013a4:	00006513          	ori	a0,zero,0
  2013a8:	cf9ff06f          	j	2010a0 <cake_exit>

00000000002013ac <cml__Halt2_2>:
  2013ac:	00206513          	ori	a0,zero,2
  2013b0:	cf1ff06f          	j	2010a0 <cake_exit>

00000000002013b4 <cml__GC_3>:
  2013b4:	fcacb823          	sd	a0,-48(s9)
  2013b8:	fe1cbc23          	sd	ra,-8(s9)
  2013bc:	00006513          	ori	a0,zero,0
  2013c0:	00a565b3          	or	a1,a0,a0
  2013c4:	fe0cb603          	ld	a2,-32(s9)
  2013c8:	00a566b3          	or	a3,a0,a0
  2013cc:	fc0cb283          	ld	t0,-64(s9)
  2013d0:	00a56333          	or	t1,a0,a0
  2013d4:	00a56433          	or	s0,a0,a0
  2013d8:	0012ff93          	andi	t6,t0,1
  2013dc:	0a0f8063          	beqz	t6,20147c <cml__GC_3+0xc8>
  2013e0:	0052e0b3          	or	ra,t0,t0
  2013e4:	01ad6533          	or	a0,s10,s10
  2013e8:	00c0d093          	srli	ra,ra,0xc
  2013ec:	00309093          	slli	ra,ra,0x3
  2013f0:	00a080b3          	add	ra,ra,a0
  2013f4:	0000b503          	ld	a0,0(ra)
  2013f8:	00357f93          	andi	t6,a0,3
  2013fc:	060f8663          	beqz	t6,201468 <cml__GC_3+0xb4>
  201400:	02055513          	srli	a0,a0,0x20
  201404:	00150513          	addi	a0,a0,1
  201408:	00a56333          	or	t1,a0,a0
  20140c:	0010e5b3          	or	a1,ra,ra
  201410:	00a560b3          	or	ra,a0,a0
  201414:	00006f93          	ori	t6,zero,0
  201418:	01f08e63          	beq	ra,t6,201434 <cml__GC_3+0x80>
  20141c:	0005b503          	ld	a0,0(a1)
  201420:	00858593          	addi	a1,a1,8
  201424:	fff08093          	addi	ra,ra,-1
  201428:	00a63023          	sd	a0,0(a2)
  20142c:	00860613          	addi	a2,a2,8
  201430:	fe5ff06f          	j	201414 <cml__GC_3+0x60>
  201434:	006360b3          	or	ra,t1,t1
  201438:	00309093          	slli	ra,ra,0x3
  20143c:	401585b3          	sub	a1,a1,ra
  201440:	00d6e0b3          	or	ra,a3,a3
  201444:	00209093          	slli	ra,ra,0x2
  201448:	0015b023          	sd	ra,0(a1)
  20144c:	00d6e533          	or	a0,a3,a3
  201450:	03729293          	slli	t0,t0,0x37
  201454:	0372d293          	srli	t0,t0,0x37
  201458:	00c51513          	slli	a0,a0,0xc
  20145c:	00a2e2b3          	or	t0,t0,a0
  201460:	006686b3          	add	a3,a3,t1
  201464:	0180006f          	j	20147c <cml__GC_3+0xc8>
  201468:	00255513          	srli	a0,a0,0x2
  20146c:	00c51513          	slli	a0,a0,0xc
  201470:	03729293          	slli	t0,t0,0x37
  201474:	0372d293          	srli	t0,t0,0x37
  201478:	00a2e2b3          	or	t0,t0,a0
  20147c:	fc5cb023          	sd	t0,-64(s9)
  201480:	0052e3b3          	or	t2,t0,t0
  201484:	00c3d393          	srli	t2,t2,0xc
  201488:	00339393          	slli	t2,t2,0x3
  20148c:	fe0cb483          	ld	s1,-32(s9)
  201490:	009383b3          	add	t2,t2,s1
  201494:	fa7cbc23          	sd	t2,-72(s9)
  201498:	00006393          	ori	t2,zero,0
  20149c:	008464b3          	or	s1,s0,s0
  2014a0:	018484b3          	add	s1,s1,s8
  2014a4:	0004b483          	ld	s1,0(s1)
  2014a8:	0073e433          	or	s0,t2,t2
  2014ac:	0094ffb3          	and	t6,s1,s1
  2014b0:	120f8c63          	beqz	t6,2015e8 <cml__GC_3+0x234>
  2014b4:	0094e0b3          	or	ra,s1,s1
  2014b8:	fff48493          	addi	s1,s1,-1
  2014bc:	00840413          	addi	s0,s0,8
  2014c0:	0010ffb3          	and	t6,ra,ra
  2014c4:	100f8a63          	beqz	t6,2015d8 <cml__GC_3+0x224>
  2014c8:	fa8cb383          	ld	t2,-88(s9)
  2014cc:	009383b3          	add	t2,t2,s1
  2014d0:	00339393          	slli	t2,t2,0x3
  2014d4:	0003b383          	ld	t2,0(t2)
  2014d8:	00206f93          	ori	t6,zero,2
  2014dc:	0ff3e063          	bltu	t2,t6,2015bc <cml__GC_3+0x208>
  2014e0:	0013ff93          	andi	t6,t2,1
  2014e4:	0c0f8663          	beqz	t6,2015b0 <cml__GC_3+0x1fc>
  2014e8:	008462b3          	or	t0,s0,s0
  2014ec:	018282b3          	add	t0,t0,s8
  2014f0:	0002b283          	ld	t0,0(t0) # ffffffffff000000 <__sel4_ipc_buffer_obj+0xfffffffffedf2000>
  2014f4:	0013d393          	srli	t2,t2,0x1
  2014f8:	0012ff93          	andi	t6,t0,1
  2014fc:	0a0f8063          	beqz	t6,20159c <cml__GC_3+0x1e8>
  201500:	0052e0b3          	or	ra,t0,t0
  201504:	01ad6533          	or	a0,s10,s10
  201508:	00c0d093          	srli	ra,ra,0xc
  20150c:	00309093          	slli	ra,ra,0x3
  201510:	00a080b3          	add	ra,ra,a0
  201514:	0000b503          	ld	a0,0(ra)
  201518:	00357f93          	andi	t6,a0,3
  20151c:	060f8663          	beqz	t6,201588 <cml__GC_3+0x1d4>
  201520:	02055513          	srli	a0,a0,0x20
  201524:	00150513          	addi	a0,a0,1
  201528:	00a56333          	or	t1,a0,a0
  20152c:	0010e5b3          	or	a1,ra,ra
  201530:	00a560b3          	or	ra,a0,a0
  201534:	00006f93          	ori	t6,zero,0
  201538:	01f08e63          	beq	ra,t6,201554 <cml__GC_3+0x1a0>
  20153c:	0005b503          	ld	a0,0(a1)
  201540:	00858593          	addi	a1,a1,8
  201544:	fff08093          	addi	ra,ra,-1
  201548:	00a63023          	sd	a0,0(a2)
  20154c:	00860613          	addi	a2,a2,8
  201550:	fe5ff06f          	j	201534 <cml__GC_3+0x180>
  201554:	006360b3          	or	ra,t1,t1
  201558:	00309093          	slli	ra,ra,0x3
  20155c:	401585b3          	sub	a1,a1,ra
  201560:	00d6e0b3          	or	ra,a3,a3
  201564:	00209093          	slli	ra,ra,0x2
  201568:	0015b023          	sd	ra,0(a1)
  20156c:	00d6e533          	or	a0,a3,a3
  201570:	03729293          	slli	t0,t0,0x37
  201574:	0372d293          	srli	t0,t0,0x37
  201578:	00c51513          	slli	a0,a0,0xc
  20157c:	00a2e2b3          	or	t0,t0,a0
  201580:	006686b3          	add	a3,a3,t1
  201584:	0180006f          	j	20159c <cml__GC_3+0x1e8>
  201588:	00255513          	srli	a0,a0,0x2
  20158c:	00c51513          	slli	a0,a0,0xc
  201590:	03729293          	slli	t0,t0,0x37
  201594:	0372d293          	srli	t0,t0,0x37
  201598:	00a2e2b3          	or	t0,t0,a0
  20159c:	008c0c33          	add	s8,s8,s0
  2015a0:	005c3023          	sd	t0,0(s8)
  2015a4:	408c0c33          	sub	s8,s8,s0
  2015a8:	00840413          	addi	s0,s0,8
  2015ac:	00c0006f          	j	2015b8 <cml__GC_3+0x204>
  2015b0:	0013d393          	srli	t2,t2,0x1
  2015b4:	00840413          	addi	s0,s0,8
  2015b8:	f21ff06f          	j	2014d8 <cml__GC_3+0x124>
  2015bc:	fa8cb083          	ld	ra,-88(s9)
  2015c0:	009080b3          	add	ra,ra,s1
  2015c4:	00309093          	slli	ra,ra,0x3
  2015c8:	0000b083          	ld	ra,0(ra)
  2015cc:	00148493          	addi	s1,s1,1
  2015d0:	03f0d093          	srli	ra,ra,0x3f
  2015d4:	eedff06f          	j	2014c0 <cml__GC_3+0x10c>
  2015d8:	008464b3          	or	s1,s0,s0
  2015dc:	018484b3          	add	s1,s1,s8
  2015e0:	0004b483          	ld	s1,0(s1)
  2015e4:	ec9ff06f          	j	2014ac <cml__GC_3+0xf8>
  2015e8:	fe0cb403          	ld	s0,-32(s9)
  2015ec:	0e860863          	beq	a2,s0,2016dc <cml__GC_3+0x328>
  2015f0:	00043383          	ld	t2,0(s0)
  2015f4:	0043ff93          	andi	t6,t2,4
  2015f8:	000f8c63          	beqz	t6,201610 <cml__GC_3+0x25c>
  2015fc:	0203d393          	srli	t2,t2,0x20
  201600:	00138393          	addi	t2,t2,1
  201604:	00339393          	slli	t2,t2,0x3
  201608:	00740433          	add	s0,s0,t2
  20160c:	0cc0006f          	j	2016d8 <cml__GC_3+0x324>
  201610:	0203d393          	srli	t2,t2,0x20
  201614:	00840413          	addi	s0,s0,8
  201618:	00006f93          	ori	t6,zero,0
  20161c:	0bf38e63          	beq	t2,t6,2016d8 <cml__GC_3+0x324>
  201620:	00043283          	ld	t0,0(s0)
  201624:	fff38393          	addi	t2,t2,-1
  201628:	0012ff93          	andi	t6,t0,1
  20162c:	0a0f8063          	beqz	t6,2016cc <cml__GC_3+0x318>
  201630:	0052e0b3          	or	ra,t0,t0
  201634:	01ad6533          	or	a0,s10,s10
  201638:	00c0d093          	srli	ra,ra,0xc
  20163c:	00309093          	slli	ra,ra,0x3
  201640:	00a080b3          	add	ra,ra,a0
  201644:	0000b503          	ld	a0,0(ra)
  201648:	00357f93          	andi	t6,a0,3
  20164c:	060f8663          	beqz	t6,2016b8 <cml__GC_3+0x304>
  201650:	02055513          	srli	a0,a0,0x20
  201654:	00150513          	addi	a0,a0,1
  201658:	00a56333          	or	t1,a0,a0
  20165c:	0010e5b3          	or	a1,ra,ra
  201660:	00a560b3          	or	ra,a0,a0
  201664:	00006f93          	ori	t6,zero,0
  201668:	01f08e63          	beq	ra,t6,201684 <cml__GC_3+0x2d0>
  20166c:	0005b503          	ld	a0,0(a1)
  201670:	00858593          	addi	a1,a1,8
  201674:	fff08093          	addi	ra,ra,-1
  201678:	00a63023          	sd	a0,0(a2)
  20167c:	00860613          	addi	a2,a2,8
  201680:	fe5ff06f          	j	201664 <cml__GC_3+0x2b0>
  201684:	006360b3          	or	ra,t1,t1
  201688:	00309093          	slli	ra,ra,0x3
  20168c:	401585b3          	sub	a1,a1,ra
  201690:	00d6e0b3          	or	ra,a3,a3
  201694:	00209093          	slli	ra,ra,0x2
  201698:	0015b023          	sd	ra,0(a1)
  20169c:	00d6e533          	or	a0,a3,a3
  2016a0:	03729293          	slli	t0,t0,0x37
  2016a4:	0372d293          	srli	t0,t0,0x37
  2016a8:	00c51513          	slli	a0,a0,0xc
  2016ac:	00a2e2b3          	or	t0,t0,a0
  2016b0:	006686b3          	add	a3,a3,t1
  2016b4:	0180006f          	j	2016cc <cml__GC_3+0x318>
  2016b8:	00255513          	srli	a0,a0,0x2
  2016bc:	00c51513          	slli	a0,a0,0xc
  2016c0:	03729293          	slli	t0,t0,0x37
  2016c4:	0372d293          	srli	t0,t0,0x37
  2016c8:	00a2e2b3          	or	t0,t0,a0
  2016cc:	00543023          	sd	t0,0(s0)
  2016d0:	00840413          	addi	s0,s0,8
  2016d4:	f45ff06f          	j	201618 <cml__GC_3+0x264>
  2016d8:	f15ff06f          	j	2015ec <cml__GC_3+0x238>
  2016dc:	01ad60b3          	or	ra,s10,s10
  2016e0:	fe0cb503          	ld	a0,-32(s9)
  2016e4:	fe8cb583          	ld	a1,-24(s9)
  2016e8:	00a585b3          	add	a1,a1,a0
  2016ec:	00a56d33          	or	s10,a0,a0
  2016f0:	fe1cb023          	sd	ra,-32(s9)
  2016f4:	ff8cb083          	ld	ra,-8(s9)
  2016f8:	fe8cbc23          	sd	s0,-8(s9)
  2016fc:	febcb823          	sd	a1,-16(s9)
  201700:	fcbcbc23          	sd	a1,-40(s9)
  201704:	fd0cb503          	ld	a0,-48(s9)
  201708:	408585b3          	sub	a1,a1,s0
  20170c:	00a5f663          	bgeu	a1,a0,201718 <cml__GC_3+0x364>
  201710:	00106513          	ori	a0,zero,1
  201714:	98dff06f          	j	2010a0 <cake_exit>
  201718:	00008067          	ret

000000000020171c <cml__Raise_4>:
  20171c:	fc8cbb03          	ld	s6,-56(s9)
  201720:	003b1b13          	slli	s6,s6,0x3
  201724:	019cec33          	or	s8,s9,s9
  201728:	016c0c33          	add	s8,s8,s6
  20172c:	010c3b03          	ld	s6,16(s8)
  201730:	fd6cb423          	sd	s6,-56(s9)
  201734:	008c3b03          	ld	s6,8(s8)
  201738:	018c0c13          	addi	s8,s8,24
  20173c:	000b0067          	jr	s6

0000000000201740 <cml__StoreConsts_5>:
  201740:	fa8cbb83          	ld	s7,-88(s9)
  201744:	00ab8bb3          	add	s7,s7,a0
  201748:	003b9b93          	slli	s7,s7,0x3
  20174c:	000bb503          	ld	a0,0(s7)
  201750:	008b8b93          	addi	s7,s7,8
  201754:	00006f93          	ori	t6,zero,0
  201758:	03f55e63          	bge	a0,t6,201794 <cml__StoreConsts_5+0x54>
  20175c:	00106f93          	ori	t6,zero,1
  201760:	03f50463          	beq	a0,t6,201788 <cml__StoreConsts_5+0x48>
  201764:	000bbb03          	ld	s6,0(s7)
  201768:	008b8b93          	addi	s7,s7,8
  20176c:	00157f93          	andi	t6,a0,1
  201770:	000f8463          	beqz	t6,201778 <cml__StoreConsts_5+0x38>
  201774:	00cb0b33          	add	s6,s6,a2
  201778:	00155513          	srli	a0,a0,0x1
  20177c:	0165b023          	sd	s6,0(a1)
  201780:	00858593          	addi	a1,a1,8
  201784:	fd9ff06f          	j	20175c <cml__StoreConsts_5+0x1c>
  201788:	000bb503          	ld	a0,0(s7)
  20178c:	008b8b93          	addi	s7,s7,8
  201790:	fc5ff06f          	j	201754 <cml__StoreConsts_5+0x14>
  201794:	00106f93          	ori	t6,zero,1
  201798:	03f50463          	beq	a0,t6,2017c0 <cml__StoreConsts_5+0x80>
  20179c:	000bbb03          	ld	s6,0(s7)
  2017a0:	008b8b93          	addi	s7,s7,8
  2017a4:	00157f93          	andi	t6,a0,1
  2017a8:	000f8463          	beqz	t6,2017b0 <cml__StoreConsts_5+0x70>
  2017ac:	00cb0b33          	add	s6,s6,a2
  2017b0:	00155513          	srli	a0,a0,0x1
  2017b4:	0165b023          	sd	s6,0(a1)
  2017b8:	00858593          	addi	a1,a1,8
  2017bc:	fd9ff06f          	j	201794 <cml__StoreConsts_5+0x54>
  2017c0:	00a56b33          	or	s6,a0,a0
  2017c4:	00a56bb3          	or	s7,a0,a0
  2017c8:	00008067          	ret

00000000002017cc <cml_generated_main_6>:
  2017cc:	fe8cb503          	ld	a0,-24(s9)
  2017d0:	00151513          	slli	a0,a0,0x1
  2017d4:	01a50533          	add	a0,a0,s10
  2017d8:	ff850593          	addi	a1,a0,-8
  2017dc:	01ad6533          	or	a0,s10,s10
  2017e0:	00853503          	ld	a0,8(a0)
  2017e4:	00a5b023          	sd	a0,0(a1)
  2017e8:	fe8cb503          	ld	a0,-24(s9)
  2017ec:	00151513          	slli	a0,a0,0x1
  2017f0:	01a50533          	add	a0,a0,s10
  2017f4:	ff050593          	addi	a1,a0,-16
  2017f8:	01ad6533          	or	a0,s10,s10
  2017fc:	01053503          	ld	a0,16(a0)
  201800:	00a5b023          	sd	a0,0(a1)
  201804:	fe8cb503          	ld	a0,-24(s9)
  201808:	00151513          	slli	a0,a0,0x1
  20180c:	01a50533          	add	a0,a0,s10
  201810:	fe850593          	addi	a1,a0,-24
  201814:	01ad6533          	or	a0,s10,s10
  201818:	01853503          	ld	a0,24(a0)
  20181c:	00a5b023          	sd	a0,0(a1)
  201820:	fe8cb503          	ld	a0,-24(s9)
  201824:	00151513          	slli	a0,a0,0x1
  201828:	01a50533          	add	a0,a0,s10
  20182c:	fe050593          	addi	a1,a0,-32
  201830:	01ad6533          	or	a0,s10,s10
  201834:	00053503          	ld	a0,0(a0)
  201838:	00a5b023          	sd	a0,0(a1)
  20183c:	fe8cb503          	ld	a0,-24(s9)
  201840:	00151513          	slli	a0,a0,0x1
  201844:	01a50533          	add	a0,a0,s10
  201848:	fd850593          	addi	a1,a0,-40
  20184c:	01ad6533          	or	a0,s10,s10
  201850:	02053503          	ld	a0,32(a0)
  201854:	00a5b023          	sd	a0,0(a1)
  201858:	fe8cb503          	ld	a0,-24(s9)
  20185c:	00151513          	slli	a0,a0,0x1
  201860:	01a50533          	add	a0,a0,s10
  201864:	fd050593          	addi	a1,a0,-48
  201868:	01ad6533          	or	a0,s10,s10
  20186c:	02853503          	ld	a0,40(a0)
  201870:	00a5b023          	sd	a0,0(a1)
  201874:	fe8cb503          	ld	a0,-24(s9)
  201878:	00151513          	slli	a0,a0,0x1
  20187c:	01a50533          	add	a0,a0,s10
  201880:	fc850593          	addi	a1,a0,-56
  201884:	01ad6533          	or	a0,s10,s10
  201888:	03053503          	ld	a0,48(a0)
  20188c:	00a5b023          	sd	a0,0(a1)
  201890:	fe8cb503          	ld	a0,-24(s9)
  201894:	00151513          	slli	a0,a0,0x1
  201898:	01a50533          	add	a0,a0,s10
  20189c:	fc050593          	addi	a1,a0,-64
  2018a0:	01ad6533          	or	a0,s10,s10
  2018a4:	03853503          	ld	a0,56(a0)
  2018a8:	00a5b023          	sd	a0,0(a1)
  2018ac:	fe8cb503          	ld	a0,-24(s9)
  2018b0:	00151513          	slli	a0,a0,0x1
  2018b4:	01a50533          	add	a0,a0,s10
  2018b8:	fb850593          	addi	a1,a0,-72
  2018bc:	01ad6533          	or	a0,s10,s10
  2018c0:	04053503          	ld	a0,64(a0)
  2018c4:	00a5b023          	sd	a0,0(a1)
  2018c8:	fe8cb503          	ld	a0,-24(s9)
  2018cc:	00151513          	slli	a0,a0,0x1
  2018d0:	01a50533          	add	a0,a0,s10
  2018d4:	fb050593          	addi	a1,a0,-80
  2018d8:	01ad6533          	or	a0,s10,s10
  2018dc:	04853503          	ld	a0,72(a0)
  2018e0:	00a5b023          	sd	a0,0(a1)
  2018e4:	fe8cb503          	ld	a0,-24(s9)
  2018e8:	00151513          	slli	a0,a0,0x1
  2018ec:	01a50533          	add	a0,a0,s10
  2018f0:	fa850593          	addi	a1,a0,-88
  2018f4:	01ad6533          	or	a0,s10,s10
  2018f8:	06053503          	ld	a0,96(a0)
  2018fc:	00a5b023          	sd	a0,0(a1)
  201900:	fe8cb503          	ld	a0,-24(s9)
  201904:	00151513          	slli	a0,a0,0x1
  201908:	01a50533          	add	a0,a0,s10
  20190c:	fa050593          	addi	a1,a0,-96
  201910:	fffff537          	lui	a0,0xfffff
  201914:	88054513          	xori	a0,a0,-1920
  201918:	01a50533          	add	a0,a0,s10
  20191c:	00053503          	ld	a0,0(a0) # fffffffffffff000 <__sel4_ipc_buffer_obj+0xffffffffffdf1000>
  201920:	00a5b023          	sd	a0,0(a1)
  201924:	fe8cb503          	ld	a0,-24(s9)
  201928:	00151513          	slli	a0,a0,0x1
  20192c:	01a50533          	add	a0,a0,s10
  201930:	f9850593          	addi	a1,a0,-104
  201934:	01ad6533          	or	a0,s10,s10
  201938:	06853503          	ld	a0,104(a0)
  20193c:	00a5b023          	sd	a0,0(a1)
  201940:	fe8cb503          	ld	a0,-24(s9)
  201944:	00151513          	slli	a0,a0,0x1
  201948:	01a50533          	add	a0,a0,s10
  20194c:	f9050593          	addi	a1,a0,-112
  201950:	fffff537          	lui	a0,0xfffff
  201954:	88854513          	xori	a0,a0,-1912
  201958:	01a50533          	add	a0,a0,s10
  20195c:	00053503          	ld	a0,0(a0) # fffffffffffff000 <__sel4_ipc_buffer_obj+0xffffffffffdf1000>
  201960:	00a5b023          	sd	a0,0(a1)
  201964:	fe8cb503          	ld	a0,-24(s9)
  201968:	00151513          	slli	a0,a0,0x1
  20196c:	01a50533          	add	a0,a0,s10
  201970:	f8850593          	addi	a1,a0,-120
  201974:	07006513          	ori	a0,zero,112
  201978:	01a50533          	add	a0,a0,s10
  20197c:	00a5b023          	sd	a0,0(a1)
  201980:	fe8cb503          	ld	a0,-24(s9)
  201984:	00151513          	slli	a0,a0,0x1
  201988:	01a50533          	add	a0,a0,s10
  20198c:	f8050593          	addi	a1,a0,-128
  201990:	fffff537          	lui	a0,0xfffff
  201994:	89054513          	xori	a0,a0,-1904
  201998:	01a50533          	add	a0,a0,s10
  20199c:	00a5b023          	sd	a0,0(a1)
  2019a0:	fe8cb503          	ld	a0,-24(s9)
  2019a4:	00151513          	slli	a0,a0,0x1
  2019a8:	01a50533          	add	a0,a0,s10
  2019ac:	f7850593          	addi	a1,a0,-136 # ffffffffffffef78 <__sel4_ipc_buffer_obj+0xffffffffffdf0f78>
  2019b0:	00001537          	lui	a0,0x1
  2019b4:	09050513          	addi	a0,a0,144 # 1090 <.Ldebug_abbrev0+0xcd>
  2019b8:	01a50533          	add	a0,a0,s10
  2019bc:	00053503          	ld	a0,0(a0)
  2019c0:	00a5b023          	sd	a0,0(a1)
  2019c4:	fe8cb503          	ld	a0,-24(s9)
  2019c8:	00151513          	slli	a0,a0,0x1
  2019cc:	01a50533          	add	a0,a0,s10
  2019d0:	f7050593          	addi	a1,a0,-144
  2019d4:	00001537          	lui	a0,0x1
  2019d8:	09850513          	addi	a0,a0,152 # 1098 <.Ldebug_abbrev0+0xd5>
  2019dc:	01a50533          	add	a0,a0,s10
  2019e0:	00053503          	ld	a0,0(a0)
  2019e4:	00a5b023          	sd	a0,0(a1)
  2019e8:	0040006f          	j	2019ec <cml_main_7>

00000000002019ec <cml_main_7>:
  2019ec:	ff0c0c13          	addi	s8,s8,-16
  2019f0:	019c7663          	bgeu	s8,s9,2019fc <cml_main_7+0x10>
  2019f4:	00206513          	ori	a0,zero,2
  2019f8:	ea8ff06f          	j	2010a0 <cake_exit>
  2019fc:	001c3423          	sd	ra,8(s8)
  201a00:	00206b13          	ori	s6,zero,2
  201a04:	016c3023          	sd	s6,0(s8)
  201a08:	fe8c0c13          	addi	s8,s8,-24
  201a0c:	019c7663          	bgeu	s8,s9,201a18 <cml_main_7+0x2c>
  201a10:	00206513          	ori	a0,zero,2
  201a14:	e8cff06f          	j	2010a0 <cake_exit>
  201a18:	00106b13          	ori	s6,zero,1
  201a1c:	016c3023          	sd	s6,0(s8)
  201a20:	00000b17          	auipc	s6,0x0
  201a24:	040b0b13          	addi	s6,s6,64 # 201a60 <cml_main_7+0x74>
  201a28:	016c3423          	sd	s6,8(s8)
  201a2c:	fc8cbb03          	ld	s6,-56(s9)
  201a30:	016c3823          	sd	s6,16(s8)
  201a34:	018c6b33          	or	s6,s8,s8
  201a38:	419b0b33          	sub	s6,s6,s9
  201a3c:	003b5b13          	srli	s6,s6,0x3
  201a40:	fd6cb423          	sd	s6,-56(s9)
  201a44:	00000097          	auipc	ra,0x0
  201a48:	00c08093          	addi	ra,ra,12 # 201a50 <cml_main_7+0x64>
  201a4c:	42c0006f          	j	201e78 <cml_rx_provide_23>
  201a50:	010c3b03          	ld	s6,16(s8)
  201a54:	fd6cb423          	sd	s6,-56(s9)
  201a58:	018c0c13          	addi	s8,s8,24
  201a5c:	0080006f          	j	201a64 <cml_main_7+0x78>
  201a60:	cbdff06f          	j	20171c <cml__Raise_4>
  201a64:	00306b13          	ori	s6,zero,3
  201a68:	016c3023          	sd	s6,0(s8)
  201a6c:	fe8c0c13          	addi	s8,s8,-24
  201a70:	019c7663          	bgeu	s8,s9,201a7c <cml_main_7+0x90>
  201a74:	00206513          	ori	a0,zero,2
  201a78:	e28ff06f          	j	2010a0 <cake_exit>
  201a7c:	00106b13          	ori	s6,zero,1
  201a80:	016c3023          	sd	s6,0(s8)
  201a84:	00000b17          	auipc	s6,0x0
  201a88:	044b0b13          	addi	s6,s6,68 # 201ac8 <cml_main_7+0xdc>
  201a8c:	016c3423          	sd	s6,8(s8)
  201a90:	fc8cbb03          	ld	s6,-56(s9)
  201a94:	016c3823          	sd	s6,16(s8)
  201a98:	018c6b33          	or	s6,s8,s8
  201a9c:	419b0b33          	sub	s6,s6,s9
  201aa0:	003b5b13          	srli	s6,s6,0x3
  201aa4:	fd6cb423          	sd	s6,-56(s9)
  201aa8:	00000097          	auipc	ra,0x0
  201aac:	00c08093          	addi	ra,ra,12 # 201ab4 <cml_main_7+0xc8>
  201ab0:	7490006f          	j	2029f8 <cml_tx_provide_32>
  201ab4:	010c3b03          	ld	s6,16(s8)
  201ab8:	fd6cb423          	sd	s6,-56(s9)
  201abc:	018c0c13          	addi	s8,s8,24
  201ac0:	008c3083          	ld	ra,8(s8)
  201ac4:	00c0006f          	j	201ad0 <cml_main_7+0xe4>
  201ac8:	008c3083          	ld	ra,8(s8)
  201acc:	c51ff06f          	j	20171c <cml__Raise_4>
  201ad0:	00006513          	ori	a0,zero,0
  201ad4:	010c0c13          	addi	s8,s8,16
  201ad8:	00008067          	ret

0000000000201adc <cml_net_queue_empty_8>:
  201adc:	00055583          	lhu	a1,0(a0)
  201ae0:	00255503          	lhu	a0,2(a0)
  201ae4:	40a585b3          	sub	a1,a1,a0
  201ae8:	00006513          	ori	a0,zero,0
  201aec:	00a59463          	bne	a1,a0,201af4 <cml_net_queue_empty_8+0x18>
  201af0:	00106513          	ori	a0,zero,1
  201af4:	00008067          	ret

0000000000201af8 <cml_net_queue_full_9>:
  201af8:	00055603          	lhu	a2,0(a0)
  201afc:	00255503          	lhu	a0,2(a0)
  201b00:	40a60533          	sub	a0,a2,a0
  201b04:	00b50663          	beq	a0,a1,201b10 <cml_net_queue_full_9+0x18>
  201b08:	00006513          	ori	a0,zero,0
  201b0c:	0080006f          	j	201b14 <cml_net_queue_full_9+0x1c>
  201b10:	00106513          	ori	a0,zero,1
  201b14:	00008067          	ret

0000000000201b18 <cml_net_enqueue_10>:
  201b18:	fe0c0c13          	addi	s8,s8,-32
  201b1c:	019c7663          	bgeu	s8,s9,201b28 <cml_net_enqueue_10+0x10>
  201b20:	00206513          	ori	a0,zero,2
  201b24:	d7cff06f          	j	2010a0 <cake_exit>
  201b28:	00055283          	lhu	t0,0(a0)
  201b2c:	fff68693          	addi	a3,a3,-1
  201b30:	0056f6b3          	and	a3,a3,t0
  201b34:	00469693          	slli	a3,a3,0x4
  201b38:	00a686b3          	add	a3,a3,a0
  201b3c:	00868693          	addi	a3,a3,8
  201b40:	00b6b023          	sd	a1,0(a3)
  201b44:	00c6b423          	sd	a2,8(a3)
  201b48:	00006693          	ori	a3,zero,0
  201b4c:	00ac3423          	sd	a0,8(s8)
  201b50:	00d6e533          	or	a0,a3,a3
  201b54:	00d6e5b3          	or	a1,a3,a3
  201b58:	00d6e633          	or	a2,a3,a3
  201b5c:	001c3823          	sd	ra,16(s8)
  201b60:	005c3c23          	sd	t0,24(s8)
  201b64:	00000097          	auipc	ra,0x0
  201b68:	00c08093          	addi	ra,ra,12 # 201b70 <cml_net_enqueue_10+0x58>
  201b6c:	cc4ff06f          	j	201030 <cake_ffiTHREAD_MEMORY_RELEASE>
  201b70:	018c3083          	ld	ra,24(s8)
  201b74:	010c3583          	ld	a1,16(s8)
  201b78:	008c3503          	ld	a0,8(s8)
  201b7c:	00108093          	addi	ra,ra,1
  201b80:	ffff0637          	lui	a2,0xffff0
  201b84:	fff64613          	not	a2,a2
  201b88:	00c0f0b3          	and	ra,ra,a2
  201b8c:	00151023          	sh	ra,0(a0)
  201b90:	00006513          	ori	a0,zero,0
  201b94:	020c0c13          	addi	s8,s8,32
  201b98:	00058067          	jr	a1

0000000000201b9c <cml_net_dequeue_11>:
  201b9c:	fd0c0c13          	addi	s8,s8,-48
  201ba0:	019c7663          	bgeu	s8,s9,201bac <cml_net_dequeue_11+0x10>
  201ba4:	00206513          	ori	a0,zero,2
  201ba8:	cf8ff06f          	j	2010a0 <cake_exit>
  201bac:	00255603          	lhu	a2,2(a0)
  201bb0:	fff58593          	addi	a1,a1,-1
  201bb4:	00c5f5b3          	and	a1,a1,a2
  201bb8:	00459593          	slli	a1,a1,0x4
  201bbc:	00a585b3          	add	a1,a1,a0
  201bc0:	00858593          	addi	a1,a1,8
  201bc4:	0005b283          	ld	t0,0(a1)
  201bc8:	0085b583          	ld	a1,8(a1)
  201bcc:	00006693          	ori	a3,zero,0
  201bd0:	00ac3823          	sd	a0,16(s8)
  201bd4:	00d6e533          	or	a0,a3,a3
  201bd8:	00bc3423          	sd	a1,8(s8)
  201bdc:	00d6e5b3          	or	a1,a3,a3
  201be0:	02cc3423          	sd	a2,40(s8)
  201be4:	00d6e633          	or	a2,a3,a3
  201be8:	021c3023          	sd	ra,32(s8)
  201bec:	005c3c23          	sd	t0,24(s8)
  201bf0:	00000097          	auipc	ra,0x0
  201bf4:	00c08093          	addi	ra,ra,12 # 201bfc <cml_net_dequeue_11+0x60>
  201bf8:	c38ff06f          	j	201030 <cake_ffiTHREAD_MEMORY_RELEASE>
  201bfc:	028c3583          	ld	a1,40(s8)
  201c00:	020c3683          	ld	a3,32(s8)
  201c04:	018c3503          	ld	a0,24(s8)
  201c08:	010c3603          	ld	a2,16(s8)
  201c0c:	008c3083          	ld	ra,8(s8)
  201c10:	00158593          	addi	a1,a1,1
  201c14:	ffff02b7          	lui	t0,0xffff0
  201c18:	fff2c293          	not	t0,t0
  201c1c:	0055f5b3          	and	a1,a1,t0
  201c20:	00b61123          	sh	a1,2(a2) # ffffffffffff0002 <__sel4_ipc_buffer_obj+0xffffffffffde2002>
  201c24:	f6acbc23          	sd	a0,-136(s9)
  201c28:	f61cb823          	sd	ra,-144(s9)
  201c2c:	00006513          	ori	a0,zero,0
  201c30:	030c0c13          	addi	s8,s8,48
  201c34:	00068067          	jr	a3

0000000000201c38 <cml_net_request_signal_12>:
  201c38:	00006593          	ori	a1,zero,0
  201c3c:	00b52223          	sw	a1,4(a0)
  201c40:	00006513          	ori	a0,zero,0
  201c44:	00008067          	ret

0000000000201c48 <cml_net_cancel_signal_13>:
  201c48:	00106593          	ori	a1,zero,1
  201c4c:	00b52223          	sw	a1,4(a0)
  201c50:	00006513          	ori	a0,zero,0
  201c54:	00008067          	ret

0000000000201c58 <cml_net_require_signal_14>:
  201c58:	00456503          	lwu	a0,4(a0)
  201c5c:	00006593          	ori	a1,zero,0
  201c60:	00a58663          	beq	a1,a0,201c6c <cml_net_require_signal_14+0x14>
  201c64:	00006513          	ori	a0,zero,0
  201c68:	0080006f          	j	201c70 <cml_net_require_signal_14+0x18>
  201c6c:	00106513          	ori	a0,zero,1
  201c70:	00008067          	ret

0000000000201c74 <cml_rx_hw_ring_empty_15>:
  201c74:	01ad6533          	or	a0,s10,s10
  201c78:	05853503          	ld	a0,88(a0)
  201c7c:	01ad65b3          	or	a1,s10,s10
  201c80:	0505b583          	ld	a1,80(a1)
  201c84:	00b50663          	beq	a0,a1,201c90 <cml_rx_hw_ring_empty_15+0x1c>
  201c88:	00006513          	ori	a0,zero,0
  201c8c:	0080006f          	j	201c94 <cml_rx_hw_ring_empty_15+0x20>
  201c90:	00106513          	ori	a0,zero,1
  201c94:	00008067          	ret

0000000000201c98 <cml_tx_hw_ring_empty_16>:
  201c98:	fffff537          	lui	a0,0xfffff
  201c9c:	87854513          	xori	a0,a0,-1928
  201ca0:	01a50533          	add	a0,a0,s10
  201ca4:	00053503          	ld	a0,0(a0) # fffffffffffff000 <__sel4_ipc_buffer_obj+0xffffffffffdf1000>
  201ca8:	fffff5b7          	lui	a1,0xfffff
  201cac:	8705c593          	xori	a1,a1,-1936
  201cb0:	01a585b3          	add	a1,a1,s10
  201cb4:	0005b583          	ld	a1,0(a1) # fffffffffffff000 <__sel4_ipc_buffer_obj+0xffffffffffdf1000>
  201cb8:	00b50663          	beq	a0,a1,201cc4 <cml_tx_hw_ring_empty_16+0x2c>
  201cbc:	00006513          	ori	a0,zero,0
  201cc0:	0080006f          	j	201cc8 <cml_tx_hw_ring_empty_16+0x30>
  201cc4:	00106513          	ori	a0,zero,1
  201cc8:	00008067          	ret

0000000000201ccc <cml_rx_hw_ring_full_17>:
  201ccc:	01ad6533          	or	a0,s10,s10
  201cd0:	05053503          	ld	a0,80(a0)
  201cd4:	01ad65b3          	or	a1,s10,s10
  201cd8:	0585b583          	ld	a1,88(a1)
  201cdc:	40b50533          	sub	a0,a0,a1
  201ce0:	fe8cb583          	ld	a1,-24(s9)
  201ce4:	00159593          	slli	a1,a1,0x1
  201ce8:	01a585b3          	add	a1,a1,s10
  201cec:	fa85b583          	ld	a1,-88(a1)
  201cf0:	00b50663          	beq	a0,a1,201cfc <cml_rx_hw_ring_full_17+0x30>
  201cf4:	00006513          	ori	a0,zero,0
  201cf8:	0080006f          	j	201d00 <cml_rx_hw_ring_full_17+0x34>
  201cfc:	00106513          	ori	a0,zero,1
  201d00:	00008067          	ret

0000000000201d04 <cml_tx_hw_ring_full_18>:
  201d04:	fffff537          	lui	a0,0xfffff
  201d08:	87054513          	xori	a0,a0,-1936
  201d0c:	01a50533          	add	a0,a0,s10
  201d10:	00053503          	ld	a0,0(a0) # fffffffffffff000 <__sel4_ipc_buffer_obj+0xffffffffffdf1000>
  201d14:	fffff5b7          	lui	a1,0xfffff
  201d18:	8785c593          	xori	a1,a1,-1928
  201d1c:	01a585b3          	add	a1,a1,s10
  201d20:	0005b583          	ld	a1,0(a1) # fffffffffffff000 <__sel4_ipc_buffer_obj+0xffffffffffdf1000>
  201d24:	40b50533          	sub	a0,a0,a1
  201d28:	fe8cb583          	ld	a1,-24(s9)
  201d2c:	00159593          	slli	a1,a1,0x1
  201d30:	01a585b3          	add	a1,a1,s10
  201d34:	fa05b583          	ld	a1,-96(a1)
  201d38:	00b50663          	beq	a0,a1,201d44 <cml_tx_hw_ring_full_18+0x40>
  201d3c:	00006513          	ori	a0,zero,0
  201d40:	0080006f          	j	201d48 <cml_tx_hw_ring_full_18+0x44>
  201d44:	00106513          	ori	a0,zero,1
  201d48:	00008067          	ret

0000000000201d4c <cml_get_dma_reg_19>:
  201d4c:	fe8cb583          	ld	a1,-24(s9)
  201d50:	00159593          	slli	a1,a1,0x1
  201d54:	01a585b3          	add	a1,a1,s10
  201d58:	fe05b583          	ld	a1,-32(a1)
  201d5c:	00b50533          	add	a0,a0,a1
  201d60:	00056503          	lwu	a0,0(a0)
  201d64:	00008067          	ret

0000000000201d68 <cml_set_dma_reg_20>:
  201d68:	fe8cb603          	ld	a2,-24(s9)
  201d6c:	00161613          	slli	a2,a2,0x1
  201d70:	01a60633          	add	a2,a2,s10
  201d74:	fe063603          	ld	a2,-32(a2)
  201d78:	00c50533          	add	a0,a0,a2
  201d7c:	00b52023          	sw	a1,0(a0)
  201d80:	00006513          	ori	a0,zero,0
  201d84:	00008067          	ret

0000000000201d88 <cml_rx_update_ring_slot_21>:
  201d88:	fe0c0c13          	addi	s8,s8,-32
  201d8c:	019c7663          	bgeu	s8,s9,201d98 <cml_rx_update_ring_slot_21+0x10>
  201d90:	00206513          	ori	a0,zero,2
  201d94:	b0cff06f          	j	2010a0 <cake_exit>
  201d98:	00451513          	slli	a0,a0,0x4
  201d9c:	fe8cb303          	ld	t1,-24(s9)
  201da0:	00131313          	slli	t1,t1,0x1
  201da4:	01a30333          	add	t1,t1,s10
  201da8:	f9833303          	ld	t1,-104(t1)
  201dac:	00650533          	add	a0,a0,t1
  201db0:	00b52023          	sw	a1,0(a0)
  201db4:	00c52223          	sw	a2,4(a0)
  201db8:	00d52423          	sw	a3,8(a0)
  201dbc:	00006693          	ori	a3,zero,0
  201dc0:	00ac3c23          	sd	a0,24(s8)
  201dc4:	00d6e533          	or	a0,a3,a3
  201dc8:	00d6e5b3          	or	a1,a3,a3
  201dcc:	00d6e633          	or	a2,a3,a3
  201dd0:	001c3423          	sd	ra,8(s8)
  201dd4:	005c3823          	sd	t0,16(s8)
  201dd8:	00000097          	auipc	ra,0x0
  201ddc:	00c08093          	addi	ra,ra,12 # 201de4 <cml_rx_update_ring_slot_21+0x5c>
  201de0:	a50ff06f          	j	201030 <cake_ffiTHREAD_MEMORY_RELEASE>
  201de4:	018c3583          	ld	a1,24(s8)
  201de8:	010c3503          	ld	a0,16(s8)
  201dec:	008c3083          	ld	ra,8(s8)
  201df0:	00a5a623          	sw	a0,12(a1)
  201df4:	00006513          	ori	a0,zero,0
  201df8:	020c0c13          	addi	s8,s8,32
  201dfc:	00008067          	ret

0000000000201e00 <cml_tx_update_ring_slot_22>:
  201e00:	fe0c0c13          	addi	s8,s8,-32
  201e04:	019c7663          	bgeu	s8,s9,201e10 <cml_tx_update_ring_slot_22+0x10>
  201e08:	00206513          	ori	a0,zero,2
  201e0c:	a94ff06f          	j	2010a0 <cake_exit>
  201e10:	00451513          	slli	a0,a0,0x4
  201e14:	fe8cb303          	ld	t1,-24(s9)
  201e18:	00131313          	slli	t1,t1,0x1
  201e1c:	01a30333          	add	t1,t1,s10
  201e20:	f9033303          	ld	t1,-112(t1)
  201e24:	00650533          	add	a0,a0,t1
  201e28:	00b52023          	sw	a1,0(a0)
  201e2c:	00c52223          	sw	a2,4(a0)
  201e30:	00d52423          	sw	a3,8(a0)
  201e34:	00006693          	ori	a3,zero,0
  201e38:	00ac3c23          	sd	a0,24(s8)
  201e3c:	00d6e533          	or	a0,a3,a3
  201e40:	00d6e5b3          	or	a1,a3,a3
  201e44:	00d6e633          	or	a2,a3,a3
  201e48:	001c3423          	sd	ra,8(s8)
  201e4c:	005c3823          	sd	t0,16(s8)
  201e50:	00000097          	auipc	ra,0x0
  201e54:	00c08093          	addi	ra,ra,12 # 201e5c <cml_tx_update_ring_slot_22+0x5c>
  201e58:	9d8ff06f          	j	201030 <cake_ffiTHREAD_MEMORY_RELEASE>
  201e5c:	018c3583          	ld	a1,24(s8)
  201e60:	010c3503          	ld	a0,16(s8)
  201e64:	008c3083          	ld	ra,8(s8)
  201e68:	00a5a623          	sw	a0,12(a1)
  201e6c:	00006513          	ori	a0,zero,0
  201e70:	020c0c13          	addi	s8,s8,32
  201e74:	00008067          	ret

0000000000201e78 <cml_rx_provide_23>:
  201e78:	00106513          	ori	a0,zero,1
  201e7c:	0040006f          	j	201e80 <cml_NOTFOUND_24>

0000000000201e80 <cml_NOTFOUND_24>:
  201e80:	00006f93          	ori	t6,zero,0
  201e84:	01f50463          	beq	a0,t6,201e8c <cml_NOTFOUND_24+0xc>
  201e88:	0080006f          	j	201e90 <cml_NOTFOUND_25>
  201e8c:	5d00006f          	j	20245c <cml_NOTFOUND_28>

0000000000201e90 <cml_NOTFOUND_25>:
  201e90:	fe8c0c13          	addi	s8,s8,-24
  201e94:	019c7663          	bgeu	s8,s9,201ea0 <cml_NOTFOUND_25+0x10>
  201e98:	00206513          	ori	a0,zero,2
  201e9c:	a04ff06f          	j	2010a0 <cake_exit>
  201ea0:	001c3823          	sd	ra,16(s8)
  201ea4:	00406b13          	ori	s6,zero,4
  201ea8:	016c3023          	sd	s6,0(s8)
  201eac:	fe8c0c13          	addi	s8,s8,-24
  201eb0:	019c7663          	bgeu	s8,s9,201ebc <cml_NOTFOUND_25+0x2c>
  201eb4:	00206513          	ori	a0,zero,2
  201eb8:	9e8ff06f          	j	2010a0 <cake_exit>
  201ebc:	00106b13          	ori	s6,zero,1
  201ec0:	016c3023          	sd	s6,0(s8)
  201ec4:	00000b17          	auipc	s6,0x0
  201ec8:	334b0b13          	addi	s6,s6,820 # 2021f8 <cml_NOTFOUND_25+0x368>
  201ecc:	016c3423          	sd	s6,8(s8)
  201ed0:	fc8cbb03          	ld	s6,-56(s9)
  201ed4:	016c3823          	sd	s6,16(s8)
  201ed8:	018c6b33          	or	s6,s8,s8
  201edc:	419b0b33          	sub	s6,s6,s9
  201ee0:	003b5b13          	srli	s6,s6,0x3
  201ee4:	fd6cb423          	sd	s6,-56(s9)
  201ee8:	00000097          	auipc	ra,0x0
  201eec:	00c08093          	addi	ra,ra,12 # 201ef4 <cml_NOTFOUND_25+0x64>
  201ef0:	dddff06f          	j	201ccc <cml_rx_hw_ring_full_17>
  201ef4:	010c3b03          	ld	s6,16(s8)
  201ef8:	fd6cb423          	sd	s6,-56(s9)
  201efc:	018c0c13          	addi	s8,s8,24
  201f00:	010c3083          	ld	ra,16(s8)
  201f04:	00006f93          	ori	t6,zero,0
  201f08:	01f50c63          	beq	a0,t6,201f20 <cml_NOTFOUND_25+0x90>
  201f0c:	ff8c0c13          	addi	s8,s8,-8
  201f10:	019c7663          	bgeu	s8,s9,201f1c <cml_NOTFOUND_25+0x8c>
  201f14:	00206513          	ori	a0,zero,2
  201f18:	988ff06f          	j	2010a0 <cake_exit>
  201f1c:	2f40006f          	j	202210 <cml_NOTFOUND_26+0x10>
  201f20:	fe8cb503          	ld	a0,-24(s9)
  201f24:	00151513          	slli	a0,a0,0x1
  201f28:	01a50533          	add	a0,a0,s10
  201f2c:	fd853503          	ld	a0,-40(a0)
  201f30:	fe8cb583          	ld	a1,-24(s9)
  201f34:	00159593          	slli	a1,a1,0x1
  201f38:	01a585b3          	add	a1,a1,s10
  201f3c:	fc85b583          	ld	a1,-56(a1)
  201f40:	001c3823          	sd	ra,16(s8)
  201f44:	00506b13          	ori	s6,zero,5
  201f48:	016c3023          	sd	s6,0(s8)
  201f4c:	fe8c0c13          	addi	s8,s8,-24
  201f50:	019c7663          	bgeu	s8,s9,201f5c <cml_NOTFOUND_25+0xcc>
  201f54:	00206513          	ori	a0,zero,2
  201f58:	948ff06f          	j	2010a0 <cake_exit>
  201f5c:	00106b13          	ori	s6,zero,1
  201f60:	016c3023          	sd	s6,0(s8)
  201f64:	00000b17          	auipc	s6,0x0
  201f68:	28cb0b13          	addi	s6,s6,652 # 2021f0 <cml_NOTFOUND_25+0x360>
  201f6c:	016c3423          	sd	s6,8(s8)
  201f70:	fc8cbb03          	ld	s6,-56(s9)
  201f74:	016c3823          	sd	s6,16(s8)
  201f78:	018c6b33          	or	s6,s8,s8
  201f7c:	419b0b33          	sub	s6,s6,s9
  201f80:	003b5b13          	srli	s6,s6,0x3
  201f84:	fd6cb423          	sd	s6,-56(s9)
  201f88:	00000097          	auipc	ra,0x0
  201f8c:	00c08093          	addi	ra,ra,12 # 201f94 <cml_NOTFOUND_25+0x104>
  201f90:	b4dff06f          	j	201adc <cml_net_queue_empty_8>
  201f94:	010c3b03          	ld	s6,16(s8)
  201f98:	fd6cb423          	sd	s6,-56(s9)
  201f9c:	018c0c13          	addi	s8,s8,24
  201fa0:	010c3083          	ld	ra,16(s8)
  201fa4:	00006f93          	ori	t6,zero,0
  201fa8:	01f50c63          	beq	a0,t6,201fc0 <cml_NOTFOUND_25+0x130>
  201fac:	ff8c0c13          	addi	s8,s8,-8
  201fb0:	019c7663          	bgeu	s8,s9,201fbc <cml_NOTFOUND_25+0x12c>
  201fb4:	00206513          	ori	a0,zero,2
  201fb8:	8e8ff06f          	j	2010a0 <cake_exit>
  201fbc:	2540006f          	j	202210 <cml_NOTFOUND_26+0x10>
  201fc0:	fe8cb503          	ld	a0,-24(s9)
  201fc4:	00151513          	slli	a0,a0,0x1
  201fc8:	01a50533          	add	a0,a0,s10
  201fcc:	fd853503          	ld	a0,-40(a0)
  201fd0:	fe8cb583          	ld	a1,-24(s9)
  201fd4:	00159593          	slli	a1,a1,0x1
  201fd8:	01a585b3          	add	a1,a1,s10
  201fdc:	fc85b583          	ld	a1,-56(a1)
  201fe0:	001c3423          	sd	ra,8(s8)
  201fe4:	00606b13          	ori	s6,zero,6
  201fe8:	016c3023          	sd	s6,0(s8)
  201fec:	fe8c0c13          	addi	s8,s8,-24
  201ff0:	019c7663          	bgeu	s8,s9,201ffc <cml_NOTFOUND_25+0x16c>
  201ff4:	00206513          	ori	a0,zero,2
  201ff8:	8a8ff06f          	j	2010a0 <cake_exit>
  201ffc:	00106b13          	ori	s6,zero,1
  202000:	016c3023          	sd	s6,0(s8)
  202004:	00000b17          	auipc	s6,0x0
  202008:	1e4b0b13          	addi	s6,s6,484 # 2021e8 <cml_NOTFOUND_25+0x358>
  20200c:	016c3423          	sd	s6,8(s8)
  202010:	fc8cbb03          	ld	s6,-56(s9)
  202014:	016c3823          	sd	s6,16(s8)
  202018:	018c6b33          	or	s6,s8,s8
  20201c:	419b0b33          	sub	s6,s6,s9
  202020:	003b5b13          	srli	s6,s6,0x3
  202024:	fd6cb423          	sd	s6,-56(s9)
  202028:	00000097          	auipc	ra,0x0
  20202c:	00c08093          	addi	ra,ra,12 # 202034 <cml_NOTFOUND_25+0x1a4>
  202030:	b6dff06f          	j	201b9c <cml_net_dequeue_11>
  202034:	010c3b03          	ld	s6,16(s8)
  202038:	fd6cb423          	sd	s6,-56(s9)
  20203c:	018c0c13          	addi	s8,s8,24
  202040:	f78cb583          	ld	a1,-136(s9)
  202044:	01ad60b3          	or	ra,s10,s10
  202048:	0500b303          	ld	t1,80(ra)
  20204c:	fe8cb083          	ld	ra,-24(s9)
  202050:	00109093          	slli	ra,ra,0x1
  202054:	01a080b3          	add	ra,ra,s10
  202058:	fa80b083          	ld	ra,-88(ra)
  20205c:	fff08093          	addi	ra,ra,-1
  202060:	00636533          	or	a0,t1,t1
  202064:	00a0f533          	and	a0,ra,a0
  202068:	00351093          	slli	ra,a0,0x3
  20206c:	fe8cb603          	ld	a2,-24(s9)
  202070:	00161613          	slli	a2,a2,0x1
  202074:	01a60633          	add	a2,a2,s10
  202078:	f8863603          	ld	a2,-120(a2)
  20207c:	00c08633          	add	a2,ra,a2
  202080:	00b5e0b3          	or	ra,a1,a1
  202084:	00b63023          	sd	a1,0(a2)
  202088:	0010e5b3          	or	a1,ra,ra
  20208c:	4200d613          	srai	a2,ra,0x20
  202090:	00006693          	ori	a3,zero,0
  202094:	c1000fb7          	lui	t6,0xc1000
  202098:	000f8f93          	mv	t6,t6
  20209c:	000002b7          	lui	t0,0x0
  2020a0:	fff2c293          	not	t0,t0
  2020a4:	02029293          	slli	t0,t0,0x20
  2020a8:	01f2c2b3          	xor	t0,t0,t6
  2020ac:	006c3823          	sd	t1,16(s8)
  2020b0:	00706b13          	ori	s6,zero,7
  2020b4:	016c3023          	sd	s6,0(s8)
  2020b8:	fe8c0c13          	addi	s8,s8,-24
  2020bc:	019c7663          	bgeu	s8,s9,2020c8 <cml_NOTFOUND_25+0x238>
  2020c0:	00206513          	ori	a0,zero,2
  2020c4:	fddfe06f          	j	2010a0 <cake_exit>
  2020c8:	00106b13          	ori	s6,zero,1
  2020cc:	016c3023          	sd	s6,0(s8)
  2020d0:	00000b17          	auipc	s6,0x0
  2020d4:	040b0b13          	addi	s6,s6,64 # 202110 <cml_NOTFOUND_25+0x280>
  2020d8:	016c3423          	sd	s6,8(s8)
  2020dc:	fc8cbb03          	ld	s6,-56(s9)
  2020e0:	016c3823          	sd	s6,16(s8)
  2020e4:	018c6b33          	or	s6,s8,s8
  2020e8:	419b0b33          	sub	s6,s6,s9
  2020ec:	003b5b13          	srli	s6,s6,0x3
  2020f0:	fd6cb423          	sd	s6,-56(s9)
  2020f4:	00000097          	auipc	ra,0x0
  2020f8:	00c08093          	addi	ra,ra,12 # 202100 <cml_NOTFOUND_25+0x270>
  2020fc:	c8dff06f          	j	201d88 <cml_rx_update_ring_slot_21>
  202100:	010c3b03          	ld	s6,16(s8)
  202104:	fd6cb423          	sd	s6,-56(s9)
  202108:	018c0c13          	addi	s8,s8,24
  20210c:	0080006f          	j	202114 <cml_NOTFOUND_25+0x284>
  202110:	e0cff06f          	j	20171c <cml__Raise_4>
  202114:	00006513          	ori	a0,zero,0
  202118:	00006593          	ori	a1,zero,0
  20211c:	00006613          	ori	a2,zero,0
  202120:	00006693          	ori	a3,zero,0
  202124:	00000097          	auipc	ra,0x0
  202128:	00c08093          	addi	ra,ra,12 # 202130 <cml_NOTFOUND_25+0x2a0>
  20212c:	f05fe06f          	j	201030 <cake_ffiTHREAD_MEMORY_RELEASE>
  202130:	010c3083          	ld	ra,16(s8)
  202134:	008c3b03          	ld	s6,8(s8)
  202138:	016c3823          	sd	s6,16(s8)
  20213c:	00409513          	slli	a0,ra,0x4
  202140:	fe8cb583          	ld	a1,-24(s9)
  202144:	00159593          	slli	a1,a1,0x1
  202148:	01a585b3          	add	a1,a1,s10
  20214c:	f785b583          	ld	a1,-136(a1)
  202150:	00b505b3          	add	a1,a0,a1
  202154:	00001537          	lui	a0,0x1
  202158:	12850513          	addi	a0,a0,296 # 1128 <.Ldebug_abbrev0+0x165>
  20215c:	001c3423          	sd	ra,8(s8)
  202160:	00806b13          	ori	s6,zero,8
  202164:	016c3023          	sd	s6,0(s8)
  202168:	fe8c0c13          	addi	s8,s8,-24
  20216c:	019c7663          	bgeu	s8,s9,202178 <cml_NOTFOUND_25+0x2e8>
  202170:	00206513          	ori	a0,zero,2
  202174:	f2dfe06f          	j	2010a0 <cake_exit>
  202178:	00106b13          	ori	s6,zero,1
  20217c:	016c3023          	sd	s6,0(s8)
  202180:	00000b17          	auipc	s6,0x0
  202184:	048b0b13          	addi	s6,s6,72 # 2021c8 <cml_NOTFOUND_25+0x338>
  202188:	016c3423          	sd	s6,8(s8)
  20218c:	fc8cbb03          	ld	s6,-56(s9)
  202190:	016c3823          	sd	s6,16(s8)
  202194:	018c6b33          	or	s6,s8,s8
  202198:	419b0b33          	sub	s6,s6,s9
  20219c:	003b5b13          	srli	s6,s6,0x3
  2021a0:	fd6cb423          	sd	s6,-56(s9)
  2021a4:	00000097          	auipc	ra,0x0
  2021a8:	00c08093          	addi	ra,ra,12 # 2021b0 <cml_NOTFOUND_25+0x320>
  2021ac:	bbdff06f          	j	201d68 <cml_set_dma_reg_20>
  2021b0:	010c3b03          	ld	s6,16(s8)
  2021b4:	fd6cb423          	sd	s6,-56(s9)
  2021b8:	018c0c13          	addi	s8,s8,24
  2021bc:	010c3083          	ld	ra,16(s8)
  2021c0:	008c3603          	ld	a2,8(s8)
  2021c4:	0100006f          	j	2021d4 <cml_NOTFOUND_25+0x344>
  2021c8:	010c3083          	ld	ra,16(s8)
  2021cc:	008c3603          	ld	a2,8(s8)
  2021d0:	d4cff06f          	j	20171c <cml__Raise_4>
  2021d4:	05006513          	ori	a0,zero,80
  2021d8:	01a505b3          	add	a1,a0,s10
  2021dc:	00160513          	addi	a0,a2,1
  2021e0:	00a5b023          	sd	a0,0(a1)
  2021e4:	0080006f          	j	2021ec <cml_NOTFOUND_25+0x35c>
  2021e8:	d34ff06f          	j	20171c <cml__Raise_4>
  2021ec:	0080006f          	j	2021f4 <cml_NOTFOUND_25+0x364>
  2021f0:	d2cff06f          	j	20171c <cml__Raise_4>
  2021f4:	0080006f          	j	2021fc <cml_NOTFOUND_25+0x36c>
  2021f8:	d24ff06f          	j	20171c <cml__Raise_4>
  2021fc:	ca5ff06f          	j	201ea0 <cml_NOTFOUND_25+0x10>

0000000000202200 <cml_NOTFOUND_26>:
  202200:	fe0c0c13          	addi	s8,s8,-32
  202204:	019c7663          	bgeu	s8,s9,202210 <cml_NOTFOUND_26+0x10>
  202208:	00206513          	ori	a0,zero,2
  20220c:	e95fe06f          	j	2010a0 <cake_exit>
  202210:	fe8cb503          	ld	a0,-24(s9)
  202214:	00151513          	slli	a0,a0,0x1
  202218:	01a50533          	add	a0,a0,s10
  20221c:	fd853503          	ld	a0,-40(a0)
  202220:	fe8cb583          	ld	a1,-24(s9)
  202224:	00159593          	slli	a1,a1,0x1
  202228:	01a585b3          	add	a1,a1,s10
  20222c:	fc85b583          	ld	a1,-56(a1)
  202230:	001c3c23          	sd	ra,24(s8)
  202234:	00906b13          	ori	s6,zero,9
  202238:	016c3023          	sd	s6,0(s8)
  20223c:	fe8c0c13          	addi	s8,s8,-24
  202240:	019c7663          	bgeu	s8,s9,20224c <cml_NOTFOUND_26+0x4c>
  202244:	00206513          	ori	a0,zero,2
  202248:	e59fe06f          	j	2010a0 <cake_exit>
  20224c:	00106b13          	ori	s6,zero,1
  202250:	016c3023          	sd	s6,0(s8)
  202254:	00000b17          	auipc	s6,0x0
  202258:	040b0b13          	addi	s6,s6,64 # 202294 <cml_NOTFOUND_26+0x94>
  20225c:	016c3423          	sd	s6,8(s8)
  202260:	fc8cbb03          	ld	s6,-56(s9)
  202264:	016c3823          	sd	s6,16(s8)
  202268:	018c6b33          	or	s6,s8,s8
  20226c:	419b0b33          	sub	s6,s6,s9
  202270:	003b5b13          	srli	s6,s6,0x3
  202274:	fd6cb423          	sd	s6,-56(s9)
  202278:	00000097          	auipc	ra,0x0
  20227c:	00c08093          	addi	ra,ra,12 # 202284 <cml_NOTFOUND_26+0x84>
  202280:	9b9ff06f          	j	201c38 <cml_net_request_signal_12>
  202284:	010c3b03          	ld	s6,16(s8)
  202288:	fd6cb423          	sd	s6,-56(s9)
  20228c:	018c0c13          	addi	s8,s8,24
  202290:	0080006f          	j	202298 <cml_NOTFOUND_26+0x98>
  202294:	c88ff06f          	j	20171c <cml__Raise_4>
  202298:	00006093          	ori	ra,zero,0
  20229c:	fe8cb503          	ld	a0,-24(s9)
  2022a0:	00151513          	slli	a0,a0,0x1
  2022a4:	01a50533          	add	a0,a0,s10
  2022a8:	fd853503          	ld	a0,-40(a0)
  2022ac:	fe8cb583          	ld	a1,-24(s9)
  2022b0:	00159593          	slli	a1,a1,0x1
  2022b4:	01a585b3          	add	a1,a1,s10
  2022b8:	fc85b583          	ld	a1,-56(a1)
  2022bc:	001c3823          	sd	ra,16(s8)
  2022c0:	00a06b13          	ori	s6,zero,10
  2022c4:	016c3023          	sd	s6,0(s8)
  2022c8:	fe8c0c13          	addi	s8,s8,-24
  2022cc:	019c7663          	bgeu	s8,s9,2022d8 <cml_NOTFOUND_26+0xd8>
  2022d0:	00206513          	ori	a0,zero,2
  2022d4:	dcdfe06f          	j	2010a0 <cake_exit>
  2022d8:	00106b13          	ori	s6,zero,1
  2022dc:	016c3023          	sd	s6,0(s8)
  2022e0:	00000b17          	auipc	s6,0x0
  2022e4:	16cb0b13          	addi	s6,s6,364 # 20244c <cml_NOTFOUND_26+0x24c>
  2022e8:	016c3423          	sd	s6,8(s8)
  2022ec:	fc8cbb03          	ld	s6,-56(s9)
  2022f0:	016c3823          	sd	s6,16(s8)
  2022f4:	018c6b33          	or	s6,s8,s8
  2022f8:	419b0b33          	sub	s6,s6,s9
  2022fc:	003b5b13          	srli	s6,s6,0x3
  202300:	fd6cb423          	sd	s6,-56(s9)
  202304:	00000097          	auipc	ra,0x0
  202308:	00c08093          	addi	ra,ra,12 # 202310 <cml_NOTFOUND_26+0x110>
  20230c:	fd0ff06f          	j	201adc <cml_net_queue_empty_8>
  202310:	010c3b03          	ld	s6,16(s8)
  202314:	fd6cb423          	sd	s6,-56(s9)
  202318:	018c0c13          	addi	s8,s8,24
  20231c:	00ac3423          	sd	a0,8(s8)
  202320:	00b06b13          	ori	s6,zero,11
  202324:	016c3023          	sd	s6,0(s8)
  202328:	fe8c0c13          	addi	s8,s8,-24
  20232c:	019c7663          	bgeu	s8,s9,202338 <cml_NOTFOUND_26+0x138>
  202330:	00206513          	ori	a0,zero,2
  202334:	d6dfe06f          	j	2010a0 <cake_exit>
  202338:	00106b13          	ori	s6,zero,1
  20233c:	016c3023          	sd	s6,0(s8)
  202340:	00000b17          	auipc	s6,0x0
  202344:	104b0b13          	addi	s6,s6,260 # 202444 <cml_NOTFOUND_26+0x244>
  202348:	016c3423          	sd	s6,8(s8)
  20234c:	fc8cbb03          	ld	s6,-56(s9)
  202350:	016c3823          	sd	s6,16(s8)
  202354:	018c6b33          	or	s6,s8,s8
  202358:	419b0b33          	sub	s6,s6,s9
  20235c:	003b5b13          	srli	s6,s6,0x3
  202360:	fd6cb423          	sd	s6,-56(s9)
  202364:	00000097          	auipc	ra,0x0
  202368:	00c08093          	addi	ra,ra,12 # 202370 <cml_NOTFOUND_26+0x170>
  20236c:	961ff06f          	j	201ccc <cml_rx_hw_ring_full_17>
  202370:	010c3b03          	ld	s6,16(s8)
  202374:	fd6cb423          	sd	s6,-56(s9)
  202378:	018c0c13          	addi	s8,s8,24
  20237c:	010c3583          	ld	a1,16(s8)
  202380:	008c3083          	ld	ra,8(s8)
  202384:	00006613          	ori	a2,zero,0
  202388:	00160663          	beq	a2,ra,202394 <cml_NOTFOUND_26+0x194>
  20238c:	00006613          	ori	a2,zero,0
  202390:	0080006f          	j	202398 <cml_NOTFOUND_26+0x198>
  202394:	00106613          	ori	a2,zero,1
  202398:	00006093          	ori	ra,zero,0
  20239c:	00a08663          	beq	ra,a0,2023a8 <cml_NOTFOUND_26+0x1a8>
  2023a0:	00006093          	ori	ra,zero,0
  2023a4:	0080006f          	j	2023ac <cml_NOTFOUND_26+0x1ac>
  2023a8:	00106093          	ori	ra,zero,1
  2023ac:	00c0f0b3          	and	ra,ra,a2
  2023b0:	00006f93          	ori	t6,zero,0
  2023b4:	01f09663          	bne	ra,t6,2023c0 <cml_NOTFOUND_26+0x1c0>
  2023b8:	018c3083          	ld	ra,24(s8)
  2023bc:	0840006f          	j	202440 <cml_NOTFOUND_26+0x240>
  2023c0:	fe8cb083          	ld	ra,-24(s9)
  2023c4:	00109093          	slli	ra,ra,0x1
  2023c8:	01a080b3          	add	ra,ra,s10
  2023cc:	fd80b503          	ld	a0,-40(ra)
  2023d0:	00c06b13          	ori	s6,zero,12
  2023d4:	016c3023          	sd	s6,0(s8)
  2023d8:	fe8c0c13          	addi	s8,s8,-24
  2023dc:	019c7663          	bgeu	s8,s9,2023e8 <cml_NOTFOUND_26+0x1e8>
  2023e0:	00206513          	ori	a0,zero,2
  2023e4:	cbdfe06f          	j	2010a0 <cake_exit>
  2023e8:	00106b13          	ori	s6,zero,1
  2023ec:	016c3023          	sd	s6,0(s8)
  2023f0:	00000b17          	auipc	s6,0x0
  2023f4:	044b0b13          	addi	s6,s6,68 # 202434 <cml_NOTFOUND_26+0x234>
  2023f8:	016c3423          	sd	s6,8(s8)
  2023fc:	fc8cbb03          	ld	s6,-56(s9)
  202400:	016c3823          	sd	s6,16(s8)
  202404:	018c6b33          	or	s6,s8,s8
  202408:	419b0b33          	sub	s6,s6,s9
  20240c:	003b5b13          	srli	s6,s6,0x3
  202410:	fd6cb423          	sd	s6,-56(s9)
  202414:	00000097          	auipc	ra,0x0
  202418:	00c08093          	addi	ra,ra,12 # 202420 <cml_NOTFOUND_26+0x220>
  20241c:	82dff06f          	j	201c48 <cml_net_cancel_signal_13>
  202420:	010c3b03          	ld	s6,16(s8)
  202424:	fd6cb423          	sd	s6,-56(s9)
  202428:	018c0c13          	addi	s8,s8,24
  20242c:	018c3083          	ld	ra,24(s8)
  202430:	00c0006f          	j	20243c <cml_NOTFOUND_26+0x23c>
  202434:	018c3083          	ld	ra,24(s8)
  202438:	ae4ff06f          	j	20171c <cml__Raise_4>
  20243c:	00106593          	ori	a1,zero,1
  202440:	0080006f          	j	202448 <cml_NOTFOUND_26+0x248>
  202444:	ad8ff06f          	j	20171c <cml__Raise_4>
  202448:	0080006f          	j	202450 <cml_NOTFOUND_26+0x250>
  20244c:	ad0ff06f          	j	20171c <cml__Raise_4>
  202450:	00b5e533          	or	a0,a1,a1
  202454:	020c0c13          	addi	s8,s8,32
  202458:	a29ff06f          	j	201e80 <cml_NOTFOUND_24>

000000000020245c <cml_NOTFOUND_28>:
  20245c:	00006513          	ori	a0,zero,0
  202460:	00008067          	ret

0000000000202464 <cml_rx_return_29>:
  202464:	00006513          	ori	a0,zero,0
  202468:	0040006f          	j	20246c <cml_NOTFOUND_30>

000000000020246c <cml_NOTFOUND_30>:
  20246c:	fd0c0c13          	addi	s8,s8,-48
  202470:	019c7663          	bgeu	s8,s9,20247c <cml_NOTFOUND_30+0x10>
  202474:	00206513          	ori	a0,zero,2
  202478:	c29fe06f          	j	2010a0 <cake_exit>
  20247c:	021c3423          	sd	ra,40(s8)
  202480:	02ac3023          	sd	a0,32(s8)
  202484:	00d06b13          	ori	s6,zero,13
  202488:	016c3023          	sd	s6,0(s8)
  20248c:	fe8c0c13          	addi	s8,s8,-24
  202490:	019c7663          	bgeu	s8,s9,20249c <cml_NOTFOUND_30+0x30>
  202494:	00206513          	ori	a0,zero,2
  202498:	c09fe06f          	j	2010a0 <cake_exit>
  20249c:	00106b13          	ori	s6,zero,1
  2024a0:	016c3023          	sd	s6,0(s8)
  2024a4:	00000b17          	auipc	s6,0x0
  2024a8:	3bcb0b13          	addi	s6,s6,956 # 202860 <cml_NOTFOUND_30+0x3f4>
  2024ac:	016c3423          	sd	s6,8(s8)
  2024b0:	fc8cbb03          	ld	s6,-56(s9)
  2024b4:	016c3823          	sd	s6,16(s8)
  2024b8:	018c6b33          	or	s6,s8,s8
  2024bc:	419b0b33          	sub	s6,s6,s9
  2024c0:	003b5b13          	srli	s6,s6,0x3
  2024c4:	fd6cb423          	sd	s6,-56(s9)
  2024c8:	00000097          	auipc	ra,0x0
  2024cc:	00c08093          	addi	ra,ra,12 # 2024d4 <cml_NOTFOUND_30+0x68>
  2024d0:	fa4ff06f          	j	201c74 <cml_rx_hw_ring_empty_15>
  2024d4:	010c3b03          	ld	s6,16(s8)
  2024d8:	fd6cb423          	sd	s6,-56(s9)
  2024dc:	018c0c13          	addi	s8,s8,24
  2024e0:	00a565b3          	or	a1,a0,a0
  2024e4:	028c3083          	ld	ra,40(s8)
  2024e8:	020c3503          	ld	a0,32(s8)
  2024ec:	00006f93          	ori	t6,zero,0
  2024f0:	01f58663          	beq	a1,t6,2024fc <cml_NOTFOUND_30+0x90>
  2024f4:	018c0c13          	addi	s8,s8,24
  2024f8:	3840006f          	j	20287c <cml_NOTFOUND_31+0x10>
  2024fc:	01ad65b3          	or	a1,s10,s10
  202500:	0585b403          	ld	s0,88(a1)
  202504:	fe8cb583          	ld	a1,-24(s9)
  202508:	00159593          	slli	a1,a1,0x1
  20250c:	01a585b3          	add	a1,a1,s10
  202510:	fa85b583          	ld	a1,-88(a1)
  202514:	fff58593          	addi	a1,a1,-1
  202518:	0085f333          	and	t1,a1,s0
  20251c:	00431593          	slli	a1,t1,0x4
  202520:	fe8cb603          	ld	a2,-24(s9)
  202524:	00161613          	slli	a2,a2,0x1
  202528:	01a60633          	add	a2,a2,s10
  20252c:	f9863603          	ld	a2,-104(a2)
  202530:	00c585b3          	add	a1,a1,a2
  202534:	00c5e383          	lwu	t2,12(a1)
  202538:	80000fb7          	lui	t6,0x80000
  20253c:	000f8f93          	mv	t6,t6
  202540:	000005b7          	lui	a1,0x0
  202544:	fff5c593          	not	a1,a1
  202548:	02059593          	slli	a1,a1,0x20
  20254c:	01f5c5b3          	xor	a1,a1,t6
  202550:	00b3f5b3          	and	a1,t2,a1
  202554:	00006f93          	ori	t6,zero,0
  202558:	01f58663          	beq	a1,t6,202564 <cml_NOTFOUND_30+0xf8>
  20255c:	018c0c13          	addi	s8,s8,24
  202560:	31c0006f          	j	20287c <cml_NOTFOUND_31+0x10>
  202564:	00006293          	ori	t0,zero,0
  202568:	00006593          	ori	a1,zero,0
  20256c:	00006613          	ori	a2,zero,0
  202570:	00006693          	ori	a3,zero,0
  202574:	00ac3c23          	sd	a0,24(s8)
  202578:	0052e533          	or	a0,t0,t0
  20257c:	021c3023          	sd	ra,32(s8)
  202580:	026c3423          	sd	t1,40(s8)
  202584:	007c3823          	sd	t2,16(s8)
  202588:	008c3423          	sd	s0,8(s8)
  20258c:	00000097          	auipc	ra,0x0
  202590:	00c08093          	addi	ra,ra,12 # 202598 <cml_NOTFOUND_30+0x12c>
  202594:	aadfe06f          	j	201040 <cake_ffiTHREAD_MEMORY_ACQUIRE>
  202598:	028c3083          	ld	ra,40(s8)
  20259c:	020c3b03          	ld	s6,32(s8)
  2025a0:	036c3423          	sd	s6,40(s8)
  2025a4:	010c3503          	ld	a0,16(s8)
  2025a8:	00309093          	slli	ra,ra,0x3
  2025ac:	fe8cb583          	ld	a1,-24(s9)
  2025b0:	00159593          	slli	a1,a1,0x1
  2025b4:	01a585b3          	add	a1,a1,s10
  2025b8:	f885b583          	ld	a1,-120(a1) # ffffffffffffff88 <__sel4_ipc_buffer_obj+0xffffffffffdf1f88>
  2025bc:	00b080b3          	add	ra,ra,a1
  2025c0:	0000b083          	ld	ra,0(ra)
  2025c4:	000085b7          	lui	a1,0x8
  2025c8:	00058593          	mv	a1,a1
  2025cc:	00b575b3          	and	a1,a0,a1
  2025d0:	00006f93          	ori	t6,zero,0
  2025d4:	0bf59863          	bne	a1,t6,202684 <cml_NOTFOUND_30+0x218>
  2025d8:	ffff85b7          	lui	a1,0xffff8
  2025dc:	fff5c593          	not	a1,a1
  2025e0:	00b57633          	and	a2,a0,a1
  2025e4:	fe8cb503          	ld	a0,-24(s9)
  2025e8:	00151513          	slli	a0,a0,0x1
  2025ec:	01a50533          	add	a0,a0,s10
  2025f0:	fd053503          	ld	a0,-48(a0)
  2025f4:	0010e5b3          	or	a1,ra,ra
  2025f8:	fe8cb083          	ld	ra,-24(s9)
  2025fc:	00109093          	slli	ra,ra,0x1
  202600:	01a080b3          	add	ra,ra,s10
  202604:	fc80b683          	ld	a3,-56(ra)
  202608:	01006b13          	ori	s6,zero,16
  20260c:	016c3023          	sd	s6,0(s8)
  202610:	fe8c0c13          	addi	s8,s8,-24
  202614:	019c7663          	bgeu	s8,s9,202620 <cml_NOTFOUND_30+0x1b4>
  202618:	00206513          	ori	a0,zero,2
  20261c:	a85fe06f          	j	2010a0 <cake_exit>
  202620:	00106b13          	ori	s6,zero,1
  202624:	016c3023          	sd	s6,0(s8)
  202628:	00000b17          	auipc	s6,0x0
  20262c:	048b0b13          	addi	s6,s6,72 # 202670 <cml_NOTFOUND_30+0x204>
  202630:	016c3423          	sd	s6,8(s8)
  202634:	fc8cbb03          	ld	s6,-56(s9)
  202638:	016c3823          	sd	s6,16(s8)
  20263c:	018c6b33          	or	s6,s8,s8
  202640:	419b0b33          	sub	s6,s6,s9
  202644:	003b5b13          	srli	s6,s6,0x3
  202648:	fd6cb423          	sd	s6,-56(s9)
  20264c:	00000097          	auipc	ra,0x0
  202650:	00c08093          	addi	ra,ra,12 # 202658 <cml_NOTFOUND_30+0x1ec>
  202654:	cc4ff06f          	j	201b18 <cml_net_enqueue_10>
  202658:	010c3b03          	ld	s6,16(s8)
  20265c:	fd6cb423          	sd	s6,-56(s9)
  202660:	018c0c13          	addi	s8,s8,24
  202664:	028c3083          	ld	ra,40(s8)
  202668:	008c3683          	ld	a3,8(s8)
  20266c:	0100006f          	j	20267c <cml_NOTFOUND_30+0x210>
  202670:	028c3083          	ld	ra,40(s8)
  202674:	008c3683          	ld	a3,8(s8)
  202678:	8a4ff06f          	j	20171c <cml__Raise_4>
  20267c:	00106593          	ori	a1,zero,1
  202680:	1cc0006f          	j	20284c <cml_NOTFOUND_30+0x3e0>
  202684:	00006513          	ori	a0,zero,0
  202688:	499605b7          	lui	a1,0x49960
  20268c:	2d258593          	addi	a1,a1,722 # 499602d2 <__sel4_ipc_buffer_obj+0x497522d2>
  202690:	00006613          	ori	a2,zero,0
  202694:	499606b7          	lui	a3,0x49960
  202698:	2d268693          	addi	a3,a3,722 # 499602d2 <__sel4_ipc_buffer_obj+0x497522d2>
  20269c:	021c3023          	sd	ra,32(s8)
  2026a0:	00000097          	auipc	ra,0x0
  2026a4:	00c08093          	addi	ra,ra,12 # 2026ac <cml_NOTFOUND_30+0x240>
  2026a8:	9d9fe06f          	j	201080 <cake_ffidebug_print>
  2026ac:	020c3583          	ld	a1,32(s8)
  2026b0:	01ad60b3          	or	ra,s10,s10
  2026b4:	0500b083          	ld	ra,80(ra)
  2026b8:	fe8cb503          	ld	a0,-24(s9)
  2026bc:	00151513          	slli	a0,a0,0x1
  2026c0:	01a50533          	add	a0,a0,s10
  2026c4:	fa853503          	ld	a0,-88(a0)
  2026c8:	fff50513          	addi	a0,a0,-1
  2026cc:	00157533          	and	a0,a0,ra
  2026d0:	00351613          	slli	a2,a0,0x3
  2026d4:	fe8cb683          	ld	a3,-24(s9)
  2026d8:	00169693          	slli	a3,a3,0x1
  2026dc:	01a686b3          	add	a3,a3,s10
  2026e0:	f886b683          	ld	a3,-120(a3)
  2026e4:	00d606b3          	add	a3,a2,a3
  2026e8:	00b5e633          	or	a2,a1,a1
  2026ec:	00b6b023          	sd	a1,0(a3)
  2026f0:	00c665b3          	or	a1,a2,a2
  2026f4:	42065613          	srai	a2,a2,0x20
  2026f8:	00006693          	ori	a3,zero,0
  2026fc:	c1000fb7          	lui	t6,0xc1000
  202700:	000f8f93          	mv	t6,t6
  202704:	000002b7          	lui	t0,0x0
  202708:	fff2c293          	not	t0,t0
  20270c:	02029293          	slli	t0,t0,0x20
  202710:	01f2c2b3          	xor	t0,t0,t6
  202714:	021c3023          	sd	ra,32(s8)
  202718:	00ac3823          	sd	a0,16(s8)
  20271c:	00e06b13          	ori	s6,zero,14
  202720:	016c3023          	sd	s6,0(s8)
  202724:	fe8c0c13          	addi	s8,s8,-24
  202728:	019c7663          	bgeu	s8,s9,202734 <cml_NOTFOUND_30+0x2c8>
  20272c:	00206513          	ori	a0,zero,2
  202730:	971fe06f          	j	2010a0 <cake_exit>
  202734:	00106b13          	ori	s6,zero,1
  202738:	016c3023          	sd	s6,0(s8)
  20273c:	00000b17          	auipc	s6,0x0
  202740:	04cb0b13          	addi	s6,s6,76 # 202788 <cml_NOTFOUND_30+0x31c>
  202744:	016c3423          	sd	s6,8(s8)
  202748:	fc8cbb03          	ld	s6,-56(s9)
  20274c:	016c3823          	sd	s6,16(s8)
  202750:	018c6b33          	or	s6,s8,s8
  202754:	419b0b33          	sub	s6,s6,s9
  202758:	003b5b13          	srli	s6,s6,0x3
  20275c:	fd6cb423          	sd	s6,-56(s9)
  202760:	00000097          	auipc	ra,0x0
  202764:	00c08093          	addi	ra,ra,12 # 20276c <cml_NOTFOUND_30+0x300>
  202768:	e20ff06f          	j	201d88 <cml_rx_update_ring_slot_21>
  20276c:	010c3b03          	ld	s6,16(s8)
  202770:	fd6cb423          	sd	s6,-56(s9)
  202774:	018c0c13          	addi	s8,s8,24
  202778:	010c3083          	ld	ra,16(s8)
  20277c:	008c3b03          	ld	s6,8(s8)
  202780:	016c3823          	sd	s6,16(s8)
  202784:	0140006f          	j	202798 <cml_NOTFOUND_30+0x32c>
  202788:	010c3083          	ld	ra,16(s8)
  20278c:	008c3b03          	ld	s6,8(s8)
  202790:	016c3823          	sd	s6,16(s8)
  202794:	f89fe06f          	j	20171c <cml__Raise_4>
  202798:	00409093          	slli	ra,ra,0x4
  20279c:	fe8cb503          	ld	a0,-24(s9)
  2027a0:	00151513          	slli	a0,a0,0x1
  2027a4:	01a50533          	add	a0,a0,s10
  2027a8:	f7853503          	ld	a0,-136(a0)
  2027ac:	00a085b3          	add	a1,ra,a0
  2027b0:	00001537          	lui	a0,0x1
  2027b4:	12850513          	addi	a0,a0,296 # 1128 <.Ldebug_abbrev0+0x165>
  2027b8:	00f06b13          	ori	s6,zero,15
  2027bc:	016c3023          	sd	s6,0(s8)
  2027c0:	fe8c0c13          	addi	s8,s8,-24
  2027c4:	019c7663          	bgeu	s8,s9,2027d0 <cml_NOTFOUND_30+0x364>
  2027c8:	00206513          	ori	a0,zero,2
  2027cc:	8d5fe06f          	j	2010a0 <cake_exit>
  2027d0:	00106b13          	ori	s6,zero,1
  2027d4:	016c3023          	sd	s6,0(s8)
  2027d8:	00000b17          	auipc	s6,0x0
  2027dc:	050b0b13          	addi	s6,s6,80 # 202828 <cml_NOTFOUND_30+0x3bc>
  2027e0:	016c3423          	sd	s6,8(s8)
  2027e4:	fc8cbb03          	ld	s6,-56(s9)
  2027e8:	016c3823          	sd	s6,16(s8)
  2027ec:	018c6b33          	or	s6,s8,s8
  2027f0:	419b0b33          	sub	s6,s6,s9
  2027f4:	003b5b13          	srli	s6,s6,0x3
  2027f8:	fd6cb423          	sd	s6,-56(s9)
  2027fc:	00000097          	auipc	ra,0x0
  202800:	00c08093          	addi	ra,ra,12 # 202808 <cml_NOTFOUND_30+0x39c>
  202804:	d64ff06f          	j	201d68 <cml_set_dma_reg_20>
  202808:	010c3b03          	ld	s6,16(s8)
  20280c:	fd6cb423          	sd	s6,-56(s9)
  202810:	018c0c13          	addi	s8,s8,24
  202814:	028c3083          	ld	ra,40(s8)
  202818:	020c3283          	ld	t0,32(s8)
  20281c:	018c3583          	ld	a1,24(s8)
  202820:	010c3683          	ld	a3,16(s8)
  202824:	0180006f          	j	20283c <cml_NOTFOUND_30+0x3d0>
  202828:	028c3083          	ld	ra,40(s8)
  20282c:	020c3283          	ld	t0,32(s8)
  202830:	018c3583          	ld	a1,24(s8)
  202834:	010c3683          	ld	a3,16(s8)
  202838:	ee5fe06f          	j	20171c <cml__Raise_4>
  20283c:	05006513          	ori	a0,zero,80
  202840:	01a50633          	add	a2,a0,s10
  202844:	00128513          	addi	a0,t0,1 # 1 <.Lline_table_start0+0x1>
  202848:	00a63023          	sd	a0,0(a2)
  20284c:	05806513          	ori	a0,zero,88
  202850:	01a50633          	add	a2,a0,s10
  202854:	00168513          	addi	a0,a3,1
  202858:	00a63023          	sd	a0,0(a2)
  20285c:	0080006f          	j	202864 <cml_NOTFOUND_30+0x3f8>
  202860:	ebdfe06f          	j	20171c <cml__Raise_4>
  202864:	00b5e533          	or	a0,a1,a1
  202868:	c15ff06f          	j	20247c <cml_NOTFOUND_30+0x10>

000000000020286c <cml_NOTFOUND_31>:
  20286c:	fe8c0c13          	addi	s8,s8,-24
  202870:	019c7663          	bgeu	s8,s9,20287c <cml_NOTFOUND_31+0x10>
  202874:	00206513          	ori	a0,zero,2
  202878:	829fe06f          	j	2010a0 <cake_exit>
  20287c:	00a56633          	or	a2,a0,a0
  202880:	fe8cb503          	ld	a0,-24(s9)
  202884:	00151513          	slli	a0,a0,0x1
  202888:	01a50533          	add	a0,a0,s10
  20288c:	fd053503          	ld	a0,-48(a0)
  202890:	fe8cb583          	ld	a1,-24(s9)
  202894:	00159593          	slli	a1,a1,0x1
  202898:	01a585b3          	add	a1,a1,s10
  20289c:	fc85b583          	ld	a1,-56(a1)
  2028a0:	001c3823          	sd	ra,16(s8)
  2028a4:	00cc3423          	sd	a2,8(s8)
  2028a8:	01106b13          	ori	s6,zero,17
  2028ac:	016c3023          	sd	s6,0(s8)
  2028b0:	fe8c0c13          	addi	s8,s8,-24
  2028b4:	019c7663          	bgeu	s8,s9,2028c0 <cml_NOTFOUND_31+0x54>
  2028b8:	00206513          	ori	a0,zero,2
  2028bc:	fe4fe06f          	j	2010a0 <cake_exit>
  2028c0:	00106b13          	ori	s6,zero,1
  2028c4:	016c3023          	sd	s6,0(s8)
  2028c8:	00000b17          	auipc	s6,0x0
  2028cc:	12cb0b13          	addi	s6,s6,300 # 2029f4 <cml_NOTFOUND_31+0x188>
  2028d0:	016c3423          	sd	s6,8(s8)
  2028d4:	fc8cbb03          	ld	s6,-56(s9)
  2028d8:	016c3823          	sd	s6,16(s8)
  2028dc:	018c6b33          	or	s6,s8,s8
  2028e0:	419b0b33          	sub	s6,s6,s9
  2028e4:	003b5b13          	srli	s6,s6,0x3
  2028e8:	fd6cb423          	sd	s6,-56(s9)
  2028ec:	00000097          	auipc	ra,0x0
  2028f0:	00c08093          	addi	ra,ra,12 # 2028f8 <cml_NOTFOUND_31+0x8c>
  2028f4:	b64ff06f          	j	201c58 <cml_net_require_signal_14>
  2028f8:	010c3b03          	ld	s6,16(s8)
  2028fc:	fd6cb423          	sd	s6,-56(s9)
  202900:	018c0c13          	addi	s8,s8,24
  202904:	008c3083          	ld	ra,8(s8)
  202908:	00006593          	ori	a1,zero,0
  20290c:	00159663          	bne	a1,ra,202918 <cml_NOTFOUND_31+0xac>
  202910:	00006593          	ori	a1,zero,0
  202914:	0080006f          	j	20291c <cml_NOTFOUND_31+0xb0>
  202918:	00106593          	ori	a1,zero,1
  20291c:	00006093          	ori	ra,zero,0
  202920:	00a09663          	bne	ra,a0,20292c <cml_NOTFOUND_31+0xc0>
  202924:	00006093          	ori	ra,zero,0
  202928:	0080006f          	j	202930 <cml_NOTFOUND_31+0xc4>
  20292c:	00106093          	ori	ra,zero,1
  202930:	00b0f0b3          	and	ra,ra,a1
  202934:	00006f93          	ori	t6,zero,0
  202938:	01f09663          	bne	ra,t6,202944 <cml_NOTFOUND_31+0xd8>
  20293c:	010c3083          	ld	ra,16(s8)
  202940:	0a40006f          	j	2029e4 <cml_NOTFOUND_31+0x178>
  202944:	fe8cb083          	ld	ra,-24(s9)
  202948:	00109093          	slli	ra,ra,0x1
  20294c:	01a080b3          	add	ra,ra,s10
  202950:	fd00b503          	ld	a0,-48(ra)
  202954:	01206b13          	ori	s6,zero,18
  202958:	016c3023          	sd	s6,0(s8)
  20295c:	fe8c0c13          	addi	s8,s8,-24
  202960:	019c7663          	bgeu	s8,s9,20296c <cml_NOTFOUND_31+0x100>
  202964:	00206513          	ori	a0,zero,2
  202968:	f38fe06f          	j	2010a0 <cake_exit>
  20296c:	00106b13          	ori	s6,zero,1
  202970:	016c3023          	sd	s6,0(s8)
  202974:	00000b17          	auipc	s6,0x0
  202978:	040b0b13          	addi	s6,s6,64 # 2029b4 <cml_NOTFOUND_31+0x148>
  20297c:	016c3423          	sd	s6,8(s8)
  202980:	fc8cbb03          	ld	s6,-56(s9)
  202984:	016c3823          	sd	s6,16(s8)
  202988:	018c6b33          	or	s6,s8,s8
  20298c:	419b0b33          	sub	s6,s6,s9
  202990:	003b5b13          	srli	s6,s6,0x3
  202994:	fd6cb423          	sd	s6,-56(s9)
  202998:	00000097          	auipc	ra,0x0
  20299c:	00c08093          	addi	ra,ra,12 # 2029a4 <cml_NOTFOUND_31+0x138>
  2029a0:	aa8ff06f          	j	201c48 <cml_net_cancel_signal_13>
  2029a4:	010c3b03          	ld	s6,16(s8)
  2029a8:	fd6cb423          	sd	s6,-56(s9)
  2029ac:	018c0c13          	addi	s8,s8,24
  2029b0:	0080006f          	j	2029b8 <cml_NOTFOUND_31+0x14c>
  2029b4:	d69fe06f          	j	20171c <cml__Raise_4>
  2029b8:	00006513          	ori	a0,zero,0
  2029bc:	fe8cb083          	ld	ra,-24(s9)
  2029c0:	00109093          	slli	ra,ra,0x1
  2029c4:	01a080b3          	add	ra,ra,s10
  2029c8:	ff00b583          	ld	a1,-16(ra)
  2029cc:	00006613          	ori	a2,zero,0
  2029d0:	00006693          	ori	a3,zero,0
  2029d4:	00000097          	auipc	ra,0x0
  2029d8:	00c08093          	addi	ra,ra,12 # 2029e0 <cml_NOTFOUND_31+0x174>
  2029dc:	e74fe06f          	j	201050 <cake_ffimicrokit_notify>
  2029e0:	010c3083          	ld	ra,16(s8)
  2029e4:	00006513          	ori	a0,zero,0
  2029e8:	018c0c13          	addi	s8,s8,24
  2029ec:	00008067          	ret
  2029f0:	0080006f          	j	2029f8 <cml_tx_provide_32>
  2029f4:	d29fe06f          	j	20171c <cml__Raise_4>

00000000002029f8 <cml_tx_provide_32>:
  2029f8:	00106513          	ori	a0,zero,1
  2029fc:	0040006f          	j	202a00 <cml_NOTFOUND_33>

0000000000202a00 <cml_NOTFOUND_33>:
  202a00:	00006f93          	ori	t6,zero,0
  202a04:	01f50463          	beq	a0,t6,202a0c <cml_NOTFOUND_33+0xc>
  202a08:	0080006f          	j	202a10 <cml_NOTFOUND_34>
  202a0c:	5bc0006f          	j	202fc8 <cml_NOTFOUND_37>

0000000000202a10 <cml_NOTFOUND_34>:
  202a10:	fe0c0c13          	addi	s8,s8,-32
  202a14:	019c7663          	bgeu	s8,s9,202a20 <cml_NOTFOUND_34+0x10>
  202a18:	00206513          	ori	a0,zero,2
  202a1c:	e84fe06f          	j	2010a0 <cake_exit>
  202a20:	001c3c23          	sd	ra,24(s8)
  202a24:	01306b13          	ori	s6,zero,19
  202a28:	016c3023          	sd	s6,0(s8)
  202a2c:	fe8c0c13          	addi	s8,s8,-24
  202a30:	019c7663          	bgeu	s8,s9,202a3c <cml_NOTFOUND_34+0x2c>
  202a34:	00206513          	ori	a0,zero,2
  202a38:	e68fe06f          	j	2010a0 <cake_exit>
  202a3c:	00106b13          	ori	s6,zero,1
  202a40:	016c3023          	sd	s6,0(s8)
  202a44:	00000b17          	auipc	s6,0x0
  202a48:	31cb0b13          	addi	s6,s6,796 # 202d60 <cml_NOTFOUND_34+0x350>
  202a4c:	016c3423          	sd	s6,8(s8)
  202a50:	fc8cbb03          	ld	s6,-56(s9)
  202a54:	016c3823          	sd	s6,16(s8)
  202a58:	018c6b33          	or	s6,s8,s8
  202a5c:	419b0b33          	sub	s6,s6,s9
  202a60:	003b5b13          	srli	s6,s6,0x3
  202a64:	fd6cb423          	sd	s6,-56(s9)
  202a68:	00000097          	auipc	ra,0x0
  202a6c:	00c08093          	addi	ra,ra,12 # 202a74 <cml_NOTFOUND_34+0x64>
  202a70:	a94ff06f          	j	201d04 <cml_tx_hw_ring_full_18>
  202a74:	010c3b03          	ld	s6,16(s8)
  202a78:	fd6cb423          	sd	s6,-56(s9)
  202a7c:	018c0c13          	addi	s8,s8,24
  202a80:	018c3083          	ld	ra,24(s8)
  202a84:	00006f93          	ori	t6,zero,0
  202a88:	01f50463          	beq	a0,t6,202a90 <cml_NOTFOUND_34+0x80>
  202a8c:	2ec0006f          	j	202d78 <cml_NOTFOUND_35+0x10>
  202a90:	fe8cb503          	ld	a0,-24(s9)
  202a94:	00151513          	slli	a0,a0,0x1
  202a98:	01a50533          	add	a0,a0,s10
  202a9c:	fb853503          	ld	a0,-72(a0)
  202aa0:	fe8cb583          	ld	a1,-24(s9)
  202aa4:	00159593          	slli	a1,a1,0x1
  202aa8:	01a585b3          	add	a1,a1,s10
  202aac:	fb05b583          	ld	a1,-80(a1)
  202ab0:	001c3c23          	sd	ra,24(s8)
  202ab4:	01406b13          	ori	s6,zero,20
  202ab8:	016c3023          	sd	s6,0(s8)
  202abc:	fe8c0c13          	addi	s8,s8,-24
  202ac0:	019c7663          	bgeu	s8,s9,202acc <cml_NOTFOUND_34+0xbc>
  202ac4:	00206513          	ori	a0,zero,2
  202ac8:	dd8fe06f          	j	2010a0 <cake_exit>
  202acc:	00106b13          	ori	s6,zero,1
  202ad0:	016c3023          	sd	s6,0(s8)
  202ad4:	00000b17          	auipc	s6,0x0
  202ad8:	284b0b13          	addi	s6,s6,644 # 202d58 <cml_NOTFOUND_34+0x348>
  202adc:	016c3423          	sd	s6,8(s8)
  202ae0:	fc8cbb03          	ld	s6,-56(s9)
  202ae4:	016c3823          	sd	s6,16(s8)
  202ae8:	018c6b33          	or	s6,s8,s8
  202aec:	419b0b33          	sub	s6,s6,s9
  202af0:	003b5b13          	srli	s6,s6,0x3
  202af4:	fd6cb423          	sd	s6,-56(s9)
  202af8:	00000097          	auipc	ra,0x0
  202afc:	00c08093          	addi	ra,ra,12 # 202b04 <cml_NOTFOUND_34+0xf4>
  202b00:	fddfe06f          	j	201adc <cml_net_queue_empty_8>
  202b04:	010c3b03          	ld	s6,16(s8)
  202b08:	fd6cb423          	sd	s6,-56(s9)
  202b0c:	018c0c13          	addi	s8,s8,24
  202b10:	018c3083          	ld	ra,24(s8)
  202b14:	00006f93          	ori	t6,zero,0
  202b18:	01f50463          	beq	a0,t6,202b20 <cml_NOTFOUND_34+0x110>
  202b1c:	25c0006f          	j	202d78 <cml_NOTFOUND_35+0x10>
  202b20:	fe8cb503          	ld	a0,-24(s9)
  202b24:	00151513          	slli	a0,a0,0x1
  202b28:	01a50533          	add	a0,a0,s10
  202b2c:	fb853503          	ld	a0,-72(a0)
  202b30:	fe8cb583          	ld	a1,-24(s9)
  202b34:	00159593          	slli	a1,a1,0x1
  202b38:	01a585b3          	add	a1,a1,s10
  202b3c:	fb05b583          	ld	a1,-80(a1)
  202b40:	001c3c23          	sd	ra,24(s8)
  202b44:	01506b13          	ori	s6,zero,21
  202b48:	016c3023          	sd	s6,0(s8)
  202b4c:	fe8c0c13          	addi	s8,s8,-24
  202b50:	019c7663          	bgeu	s8,s9,202b5c <cml_NOTFOUND_34+0x14c>
  202b54:	00206513          	ori	a0,zero,2
  202b58:	d48fe06f          	j	2010a0 <cake_exit>
  202b5c:	00106b13          	ori	s6,zero,1
  202b60:	016c3023          	sd	s6,0(s8)
  202b64:	00000b17          	auipc	s6,0x0
  202b68:	1ecb0b13          	addi	s6,s6,492 # 202d50 <cml_NOTFOUND_34+0x340>
  202b6c:	016c3423          	sd	s6,8(s8)
  202b70:	fc8cbb03          	ld	s6,-56(s9)
  202b74:	016c3823          	sd	s6,16(s8)
  202b78:	018c6b33          	or	s6,s8,s8
  202b7c:	419b0b33          	sub	s6,s6,s9
  202b80:	003b5b13          	srli	s6,s6,0x3
  202b84:	fd6cb423          	sd	s6,-56(s9)
  202b88:	00000097          	auipc	ra,0x0
  202b8c:	00c08093          	addi	ra,ra,12 # 202b94 <cml_NOTFOUND_34+0x184>
  202b90:	80cff06f          	j	201b9c <cml_net_dequeue_11>
  202b94:	010c3b03          	ld	s6,16(s8)
  202b98:	fd6cb423          	sd	s6,-56(s9)
  202b9c:	018c0c13          	addi	s8,s8,24
  202ba0:	f78cb583          	ld	a1,-136(s9)
  202ba4:	f70cb083          	ld	ra,-144(s9)
  202ba8:	80000fb7          	lui	t6,0x80000
  202bac:	000f8f93          	mv	t6,t6
  202bb0:	00000537          	lui	a0,0x0
  202bb4:	fff54513          	not	a0,a0
  202bb8:	02051513          	slli	a0,a0,0x20
  202bbc:	01f54533          	xor	a0,a0,t6
  202bc0:	00a0e6b3          	or	a3,ra,a0
  202bc4:	fffff537          	lui	a0,0xfffff
  202bc8:	87054513          	xori	a0,a0,-1936
  202bcc:	01a50533          	add	a0,a0,s10
  202bd0:	00053303          	ld	t1,0(a0) # fffffffffffff000 <__sel4_ipc_buffer_obj+0xffffffffffdf1000>
  202bd4:	fe8cb503          	ld	a0,-24(s9)
  202bd8:	00151513          	slli	a0,a0,0x1
  202bdc:	01a50533          	add	a0,a0,s10
  202be0:	fa053503          	ld	a0,-96(a0)
  202be4:	fff50513          	addi	a0,a0,-1
  202be8:	00657533          	and	a0,a0,t1
  202bec:	00351613          	slli	a2,a0,0x3
  202bf0:	fe8cb283          	ld	t0,-24(s9)
  202bf4:	00129293          	slli	t0,t0,0x1
  202bf8:	01a282b3          	add	t0,t0,s10
  202bfc:	f802b283          	ld	t0,-128(t0)
  202c00:	005602b3          	add	t0,a2,t0
  202c04:	00b5e633          	or	a2,a1,a1
  202c08:	00b2b023          	sd	a1,0(t0)
  202c0c:	00c665b3          	or	a1,a2,a2
  202c10:	42065613          	srai	a2,a2,0x20
  202c14:	b0030fb7          	lui	t6,0xb0030
  202c18:	000f8f93          	mv	t6,t6
  202c1c:	000002b7          	lui	t0,0x0
  202c20:	fff2c293          	not	t0,t0
  202c24:	02029293          	slli	t0,t0,0x20
  202c28:	01f2c2b3          	xor	t0,t0,t6
  202c2c:	0050e2b3          	or	t0,ra,t0
  202c30:	006c3823          	sd	t1,16(s8)
  202c34:	00ac3423          	sd	a0,8(s8)
  202c38:	01606b13          	ori	s6,zero,22
  202c3c:	016c3023          	sd	s6,0(s8)
  202c40:	fe8c0c13          	addi	s8,s8,-24
  202c44:	019c7663          	bgeu	s8,s9,202c50 <cml_NOTFOUND_34+0x240>
  202c48:	00206513          	ori	a0,zero,2
  202c4c:	c54fe06f          	j	2010a0 <cake_exit>
  202c50:	00106b13          	ori	s6,zero,1
  202c54:	016c3023          	sd	s6,0(s8)
  202c58:	00000b17          	auipc	s6,0x0
  202c5c:	048b0b13          	addi	s6,s6,72 # 202ca0 <cml_NOTFOUND_34+0x290>
  202c60:	016c3423          	sd	s6,8(s8)
  202c64:	fc8cbb03          	ld	s6,-56(s9)
  202c68:	016c3823          	sd	s6,16(s8)
  202c6c:	018c6b33          	or	s6,s8,s8
  202c70:	419b0b33          	sub	s6,s6,s9
  202c74:	003b5b13          	srli	s6,s6,0x3
  202c78:	fd6cb423          	sd	s6,-56(s9)
  202c7c:	00000097          	auipc	ra,0x0
  202c80:	00c08093          	addi	ra,ra,12 # 202c88 <cml_NOTFOUND_34+0x278>
  202c84:	97cff06f          	j	201e00 <cml_tx_update_ring_slot_22>
  202c88:	010c3b03          	ld	s6,16(s8)
  202c8c:	fd6cb423          	sd	s6,-56(s9)
  202c90:	018c0c13          	addi	s8,s8,24
  202c94:	010c3603          	ld	a2,16(s8)
  202c98:	008c3083          	ld	ra,8(s8)
  202c9c:	0100006f          	j	202cac <cml_NOTFOUND_34+0x29c>
  202ca0:	010c3603          	ld	a2,16(s8)
  202ca4:	008c3083          	ld	ra,8(s8)
  202ca8:	a75fe06f          	j	20171c <cml__Raise_4>
  202cac:	fffff537          	lui	a0,0xfffff
  202cb0:	87054513          	xori	a0,a0,-1936
  202cb4:	01a505b3          	add	a1,a0,s10
  202cb8:	00160513          	addi	a0,a2,1
  202cbc:	00a5b023          	sd	a0,0(a1)
  202cc0:	00409093          	slli	ra,ra,0x4
  202cc4:	fe8cb503          	ld	a0,-24(s9)
  202cc8:	00151513          	slli	a0,a0,0x1
  202ccc:	01a50533          	add	a0,a0,s10
  202cd0:	f7053503          	ld	a0,-144(a0) # ffffffffffffef70 <__sel4_ipc_buffer_obj+0xffffffffffdf0f70>
  202cd4:	00a085b3          	add	a1,ra,a0
  202cd8:	00001537          	lui	a0,0x1
  202cdc:	12050513          	addi	a0,a0,288 # 1120 <.Ldebug_abbrev0+0x15d>
  202ce0:	01706b13          	ori	s6,zero,23
  202ce4:	016c3023          	sd	s6,0(s8)
  202ce8:	fe8c0c13          	addi	s8,s8,-24
  202cec:	019c7663          	bgeu	s8,s9,202cf8 <cml_NOTFOUND_34+0x2e8>
  202cf0:	00206513          	ori	a0,zero,2
  202cf4:	bacfe06f          	j	2010a0 <cake_exit>
  202cf8:	00106b13          	ori	s6,zero,1
  202cfc:	016c3023          	sd	s6,0(s8)
  202d00:	00000b17          	auipc	s6,0x0
  202d04:	044b0b13          	addi	s6,s6,68 # 202d44 <cml_NOTFOUND_34+0x334>
  202d08:	016c3423          	sd	s6,8(s8)
  202d0c:	fc8cbb03          	ld	s6,-56(s9)
  202d10:	016c3823          	sd	s6,16(s8)
  202d14:	018c6b33          	or	s6,s8,s8
  202d18:	419b0b33          	sub	s6,s6,s9
  202d1c:	003b5b13          	srli	s6,s6,0x3
  202d20:	fd6cb423          	sd	s6,-56(s9)
  202d24:	00000097          	auipc	ra,0x0
  202d28:	00c08093          	addi	ra,ra,12 # 202d30 <cml_NOTFOUND_34+0x320>
  202d2c:	83cff06f          	j	201d68 <cml_set_dma_reg_20>
  202d30:	010c3b03          	ld	s6,16(s8)
  202d34:	fd6cb423          	sd	s6,-56(s9)
  202d38:	018c0c13          	addi	s8,s8,24
  202d3c:	018c3083          	ld	ra,24(s8)
  202d40:	00c0006f          	j	202d4c <cml_NOTFOUND_34+0x33c>
  202d44:	018c3083          	ld	ra,24(s8)
  202d48:	9d5fe06f          	j	20171c <cml__Raise_4>
  202d4c:	0080006f          	j	202d54 <cml_NOTFOUND_34+0x344>
  202d50:	9cdfe06f          	j	20171c <cml__Raise_4>
  202d54:	0080006f          	j	202d5c <cml_NOTFOUND_34+0x34c>
  202d58:	9c5fe06f          	j	20171c <cml__Raise_4>
  202d5c:	0080006f          	j	202d64 <cml_NOTFOUND_34+0x354>
  202d60:	9bdfe06f          	j	20171c <cml__Raise_4>
  202d64:	cbdff06f          	j	202a20 <cml_NOTFOUND_34+0x10>

0000000000202d68 <cml_NOTFOUND_35>:
  202d68:	fe0c0c13          	addi	s8,s8,-32
  202d6c:	019c7663          	bgeu	s8,s9,202d78 <cml_NOTFOUND_35+0x10>
  202d70:	00206513          	ori	a0,zero,2
  202d74:	b2cfe06f          	j	2010a0 <cake_exit>
  202d78:	fe8cb503          	ld	a0,-24(s9)
  202d7c:	00151513          	slli	a0,a0,0x1
  202d80:	01a50533          	add	a0,a0,s10
  202d84:	fb853503          	ld	a0,-72(a0)
  202d88:	fe8cb583          	ld	a1,-24(s9)
  202d8c:	00159593          	slli	a1,a1,0x1
  202d90:	01a585b3          	add	a1,a1,s10
  202d94:	fb05b583          	ld	a1,-80(a1)
  202d98:	001c3c23          	sd	ra,24(s8)
  202d9c:	01806b13          	ori	s6,zero,24
  202da0:	016c3023          	sd	s6,0(s8)
  202da4:	fe8c0c13          	addi	s8,s8,-24
  202da8:	019c7663          	bgeu	s8,s9,202db4 <cml_NOTFOUND_35+0x4c>
  202dac:	00206513          	ori	a0,zero,2
  202db0:	af0fe06f          	j	2010a0 <cake_exit>
  202db4:	00106b13          	ori	s6,zero,1
  202db8:	016c3023          	sd	s6,0(s8)
  202dbc:	00000b17          	auipc	s6,0x0
  202dc0:	040b0b13          	addi	s6,s6,64 # 202dfc <cml_NOTFOUND_35+0x94>
  202dc4:	016c3423          	sd	s6,8(s8)
  202dc8:	fc8cbb03          	ld	s6,-56(s9)
  202dcc:	016c3823          	sd	s6,16(s8)
  202dd0:	018c6b33          	or	s6,s8,s8
  202dd4:	419b0b33          	sub	s6,s6,s9
  202dd8:	003b5b13          	srli	s6,s6,0x3
  202ddc:	fd6cb423          	sd	s6,-56(s9)
  202de0:	00000097          	auipc	ra,0x0
  202de4:	00c08093          	addi	ra,ra,12 # 202dec <cml_NOTFOUND_35+0x84>
  202de8:	e51fe06f          	j	201c38 <cml_net_request_signal_12>
  202dec:	010c3b03          	ld	s6,16(s8)
  202df0:	fd6cb423          	sd	s6,-56(s9)
  202df4:	018c0c13          	addi	s8,s8,24
  202df8:	0080006f          	j	202e00 <cml_NOTFOUND_35+0x98>
  202dfc:	921fe06f          	j	20171c <cml__Raise_4>
  202e00:	00006093          	ori	ra,zero,0
  202e04:	001c3823          	sd	ra,16(s8)
  202e08:	01906b13          	ori	s6,zero,25
  202e0c:	016c3023          	sd	s6,0(s8)
  202e10:	fe8c0c13          	addi	s8,s8,-24
  202e14:	019c7663          	bgeu	s8,s9,202e20 <cml_NOTFOUND_35+0xb8>
  202e18:	00206513          	ori	a0,zero,2
  202e1c:	a84fe06f          	j	2010a0 <cake_exit>
  202e20:	00106b13          	ori	s6,zero,1
  202e24:	016c3023          	sd	s6,0(s8)
  202e28:	00000b17          	auipc	s6,0x0
  202e2c:	190b0b13          	addi	s6,s6,400 # 202fb8 <cml_NOTFOUND_35+0x250>
  202e30:	016c3423          	sd	s6,8(s8)
  202e34:	fc8cbb03          	ld	s6,-56(s9)
  202e38:	016c3823          	sd	s6,16(s8)
  202e3c:	018c6b33          	or	s6,s8,s8
  202e40:	419b0b33          	sub	s6,s6,s9
  202e44:	003b5b13          	srli	s6,s6,0x3
  202e48:	fd6cb423          	sd	s6,-56(s9)
  202e4c:	00000097          	auipc	ra,0x0
  202e50:	00c08093          	addi	ra,ra,12 # 202e58 <cml_NOTFOUND_35+0xf0>
  202e54:	eb1fe06f          	j	201d04 <cml_tx_hw_ring_full_18>
  202e58:	010c3b03          	ld	s6,16(s8)
  202e5c:	fd6cb423          	sd	s6,-56(s9)
  202e60:	018c0c13          	addi	s8,s8,24
  202e64:	00a560b3          	or	ra,a0,a0
  202e68:	fe8cb503          	ld	a0,-24(s9)
  202e6c:	00151513          	slli	a0,a0,0x1
  202e70:	01a50533          	add	a0,a0,s10
  202e74:	fb853503          	ld	a0,-72(a0)
  202e78:	fe8cb583          	ld	a1,-24(s9)
  202e7c:	00159593          	slli	a1,a1,0x1
  202e80:	01a585b3          	add	a1,a1,s10
  202e84:	fb05b583          	ld	a1,-80(a1)
  202e88:	001c3423          	sd	ra,8(s8)
  202e8c:	01a06b13          	ori	s6,zero,26
  202e90:	016c3023          	sd	s6,0(s8)
  202e94:	fe8c0c13          	addi	s8,s8,-24
  202e98:	019c7663          	bgeu	s8,s9,202ea4 <cml_NOTFOUND_35+0x13c>
  202e9c:	00206513          	ori	a0,zero,2
  202ea0:	a00fe06f          	j	2010a0 <cake_exit>
  202ea4:	00106b13          	ori	s6,zero,1
  202ea8:	016c3023          	sd	s6,0(s8)
  202eac:	00000b17          	auipc	s6,0x0
  202eb0:	104b0b13          	addi	s6,s6,260 # 202fb0 <cml_NOTFOUND_35+0x248>
  202eb4:	016c3423          	sd	s6,8(s8)
  202eb8:	fc8cbb03          	ld	s6,-56(s9)
  202ebc:	016c3823          	sd	s6,16(s8)
  202ec0:	018c6b33          	or	s6,s8,s8
  202ec4:	419b0b33          	sub	s6,s6,s9
  202ec8:	003b5b13          	srli	s6,s6,0x3
  202ecc:	fd6cb423          	sd	s6,-56(s9)
  202ed0:	00000097          	auipc	ra,0x0
  202ed4:	00c08093          	addi	ra,ra,12 # 202edc <cml_NOTFOUND_35+0x174>
  202ed8:	c05fe06f          	j	201adc <cml_net_queue_empty_8>
  202edc:	010c3b03          	ld	s6,16(s8)
  202ee0:	fd6cb423          	sd	s6,-56(s9)
  202ee4:	018c0c13          	addi	s8,s8,24
  202ee8:	010c3583          	ld	a1,16(s8)
  202eec:	008c3083          	ld	ra,8(s8)
  202ef0:	00006613          	ori	a2,zero,0
  202ef4:	00160663          	beq	a2,ra,202f00 <cml_NOTFOUND_35+0x198>
  202ef8:	00006613          	ori	a2,zero,0
  202efc:	0080006f          	j	202f04 <cml_NOTFOUND_35+0x19c>
  202f00:	00106613          	ori	a2,zero,1
  202f04:	00006093          	ori	ra,zero,0
  202f08:	00a08663          	beq	ra,a0,202f14 <cml_NOTFOUND_35+0x1ac>
  202f0c:	00006093          	ori	ra,zero,0
  202f10:	0080006f          	j	202f18 <cml_NOTFOUND_35+0x1b0>
  202f14:	00106093          	ori	ra,zero,1
  202f18:	00c0f0b3          	and	ra,ra,a2
  202f1c:	00006f93          	ori	t6,zero,0
  202f20:	01f09663          	bne	ra,t6,202f2c <cml_NOTFOUND_35+0x1c4>
  202f24:	018c3083          	ld	ra,24(s8)
  202f28:	0840006f          	j	202fac <cml_NOTFOUND_35+0x244>
  202f2c:	fe8cb083          	ld	ra,-24(s9)
  202f30:	00109093          	slli	ra,ra,0x1
  202f34:	01a080b3          	add	ra,ra,s10
  202f38:	fb80b503          	ld	a0,-72(ra)
  202f3c:	01b06b13          	ori	s6,zero,27
  202f40:	016c3023          	sd	s6,0(s8)
  202f44:	fe8c0c13          	addi	s8,s8,-24
  202f48:	019c7663          	bgeu	s8,s9,202f54 <cml_NOTFOUND_35+0x1ec>
  202f4c:	00206513          	ori	a0,zero,2
  202f50:	950fe06f          	j	2010a0 <cake_exit>
  202f54:	00106b13          	ori	s6,zero,1
  202f58:	016c3023          	sd	s6,0(s8)
  202f5c:	00000b17          	auipc	s6,0x0
  202f60:	044b0b13          	addi	s6,s6,68 # 202fa0 <cml_NOTFOUND_35+0x238>
  202f64:	016c3423          	sd	s6,8(s8)
  202f68:	fc8cbb03          	ld	s6,-56(s9)
  202f6c:	016c3823          	sd	s6,16(s8)
  202f70:	018c6b33          	or	s6,s8,s8
  202f74:	419b0b33          	sub	s6,s6,s9
  202f78:	003b5b13          	srli	s6,s6,0x3
  202f7c:	fd6cb423          	sd	s6,-56(s9)
  202f80:	00000097          	auipc	ra,0x0
  202f84:	00c08093          	addi	ra,ra,12 # 202f8c <cml_NOTFOUND_35+0x224>
  202f88:	cc1fe06f          	j	201c48 <cml_net_cancel_signal_13>
  202f8c:	010c3b03          	ld	s6,16(s8)
  202f90:	fd6cb423          	sd	s6,-56(s9)
  202f94:	018c0c13          	addi	s8,s8,24
  202f98:	018c3083          	ld	ra,24(s8)
  202f9c:	00c0006f          	j	202fa8 <cml_NOTFOUND_35+0x240>
  202fa0:	018c3083          	ld	ra,24(s8)
  202fa4:	f78fe06f          	j	20171c <cml__Raise_4>
  202fa8:	00106593          	ori	a1,zero,1
  202fac:	0080006f          	j	202fb4 <cml_NOTFOUND_35+0x24c>
  202fb0:	f6cfe06f          	j	20171c <cml__Raise_4>
  202fb4:	0080006f          	j	202fbc <cml_NOTFOUND_35+0x254>
  202fb8:	f64fe06f          	j	20171c <cml__Raise_4>
  202fbc:	00b5e533          	or	a0,a1,a1
  202fc0:	020c0c13          	addi	s8,s8,32
  202fc4:	a3dff06f          	j	202a00 <cml_NOTFOUND_33>

0000000000202fc8 <cml_NOTFOUND_37>:
  202fc8:	00006513          	ori	a0,zero,0
  202fcc:	00008067          	ret

0000000000202fd0 <cml_tx_return_38>:
  202fd0:	00006513          	ori	a0,zero,0
  202fd4:	0040006f          	j	202fd8 <cml_NOTFOUND_39>

0000000000202fd8 <cml_NOTFOUND_39>:
  202fd8:	fe0c0c13          	addi	s8,s8,-32
  202fdc:	019c7663          	bgeu	s8,s9,202fe8 <cml_NOTFOUND_39+0x10>
  202fe0:	00206513          	ori	a0,zero,2
  202fe4:	8bcfe06f          	j	2010a0 <cake_exit>
  202fe8:	001c3c23          	sd	ra,24(s8)
  202fec:	00ac3823          	sd	a0,16(s8)
  202ff0:	01c06b13          	ori	s6,zero,28
  202ff4:	016c3023          	sd	s6,0(s8)
  202ff8:	fe8c0c13          	addi	s8,s8,-24
  202ffc:	019c7663          	bgeu	s8,s9,203008 <cml_NOTFOUND_39+0x30>
  203000:	00206513          	ori	a0,zero,2
  203004:	89cfe06f          	j	2010a0 <cake_exit>
  203008:	00106b13          	ori	s6,zero,1
  20300c:	016c3023          	sd	s6,0(s8)
  203010:	00000b17          	auipc	s6,0x0
  203014:	1d4b0b13          	addi	s6,s6,468 # 2031e4 <cml_NOTFOUND_39+0x20c>
  203018:	016c3423          	sd	s6,8(s8)
  20301c:	fc8cbb03          	ld	s6,-56(s9)
  203020:	016c3823          	sd	s6,16(s8)
  203024:	018c6b33          	or	s6,s8,s8
  203028:	419b0b33          	sub	s6,s6,s9
  20302c:	003b5b13          	srli	s6,s6,0x3
  203030:	fd6cb423          	sd	s6,-56(s9)
  203034:	00000097          	auipc	ra,0x0
  203038:	00c08093          	addi	ra,ra,12 # 203040 <cml_NOTFOUND_39+0x68>
  20303c:	c5dfe06f          	j	201c98 <cml_tx_hw_ring_empty_16>
  203040:	010c3b03          	ld	s6,16(s8)
  203044:	fd6cb423          	sd	s6,-56(s9)
  203048:	018c0c13          	addi	s8,s8,24
  20304c:	00a565b3          	or	a1,a0,a0
  203050:	018c3083          	ld	ra,24(s8)
  203054:	010c3503          	ld	a0,16(s8)
  203058:	00006f93          	ori	t6,zero,0
  20305c:	01f58663          	beq	a1,t6,203068 <cml_NOTFOUND_39+0x90>
  203060:	010c0c13          	addi	s8,s8,16
  203064:	19c0006f          	j	203200 <cml_NOTFOUND_40+0x10>
  203068:	fffff5b7          	lui	a1,0xfffff
  20306c:	8785c593          	xori	a1,a1,-1928
  203070:	01a585b3          	add	a1,a1,s10
  203074:	0005b303          	ld	t1,0(a1) # fffffffffffff000 <__sel4_ipc_buffer_obj+0xffffffffffdf1000>
  203078:	fe8cb583          	ld	a1,-24(s9)
  20307c:	00159593          	slli	a1,a1,0x1
  203080:	01a585b3          	add	a1,a1,s10
  203084:	fa05b583          	ld	a1,-96(a1)
  203088:	fff58593          	addi	a1,a1,-1
  20308c:	0065f2b3          	and	t0,a1,t1
  203090:	00429593          	slli	a1,t0,0x4
  203094:	fe8cb603          	ld	a2,-24(s9)
  203098:	00161613          	slli	a2,a2,0x1
  20309c:	01a60633          	add	a2,a2,s10
  2030a0:	f9063603          	ld	a2,-112(a2)
  2030a4:	00c585b3          	add	a1,a1,a2
  2030a8:	00c5e583          	lwu	a1,12(a1)
  2030ac:	80000fb7          	lui	t6,0x80000
  2030b0:	000f8f93          	mv	t6,t6
  2030b4:	00000637          	lui	a2,0x0
  2030b8:	fff64613          	not	a2,a2
  2030bc:	02061613          	slli	a2,a2,0x20
  2030c0:	01f64633          	xor	a2,a2,t6
  2030c4:	00c5f5b3          	and	a1,a1,a2
  2030c8:	00006f93          	ori	t6,zero,0
  2030cc:	01f58663          	beq	a1,t6,2030d8 <cml_NOTFOUND_39+0x100>
  2030d0:	010c0c13          	addi	s8,s8,16
  2030d4:	12c0006f          	j	203200 <cml_NOTFOUND_40+0x10>
  2030d8:	00006513          	ori	a0,zero,0
  2030dc:	00006593          	ori	a1,zero,0
  2030e0:	00006613          	ori	a2,zero,0
  2030e4:	00006693          	ori	a3,zero,0
  2030e8:	001c3823          	sd	ra,16(s8)
  2030ec:	005c3c23          	sd	t0,24(s8)
  2030f0:	006c3423          	sd	t1,8(s8)
  2030f4:	00000097          	auipc	ra,0x0
  2030f8:	00c08093          	addi	ra,ra,12 # 203100 <cml_NOTFOUND_39+0x128>
  2030fc:	f45fd06f          	j	201040 <cake_ffiTHREAD_MEMORY_ACQUIRE>
  203100:	018c3083          	ld	ra,24(s8)
  203104:	010c3b03          	ld	s6,16(s8)
  203108:	016c3c23          	sd	s6,24(s8)
  20310c:	008c3b03          	ld	s6,8(s8)
  203110:	016c3823          	sd	s6,16(s8)
  203114:	00309093          	slli	ra,ra,0x3
  203118:	fe8cb503          	ld	a0,-24(s9)
  20311c:	00151513          	slli	a0,a0,0x1
  203120:	01a50533          	add	a0,a0,s10
  203124:	f8053503          	ld	a0,-128(a0)
  203128:	00a080b3          	add	ra,ra,a0
  20312c:	0000b583          	ld	a1,0(ra)
  203130:	fe8cb083          	ld	ra,-24(s9)
  203134:	00109093          	slli	ra,ra,0x1
  203138:	01a080b3          	add	ra,ra,s10
  20313c:	fc00b503          	ld	a0,-64(ra)
  203140:	00006613          	ori	a2,zero,0
  203144:	fe8cb083          	ld	ra,-24(s9)
  203148:	00109093          	slli	ra,ra,0x1
  20314c:	01a080b3          	add	ra,ra,s10
  203150:	fb00b683          	ld	a3,-80(ra)
  203154:	01d06b13          	ori	s6,zero,29
  203158:	016c3023          	sd	s6,0(s8)
  20315c:	fe8c0c13          	addi	s8,s8,-24
  203160:	019c7663          	bgeu	s8,s9,20316c <cml_NOTFOUND_39+0x194>
  203164:	00206513          	ori	a0,zero,2
  203168:	f39fd06f          	j	2010a0 <cake_exit>
  20316c:	00106b13          	ori	s6,zero,1
  203170:	016c3023          	sd	s6,0(s8)
  203174:	00000b17          	auipc	s6,0x0
  203178:	048b0b13          	addi	s6,s6,72 # 2031bc <cml_NOTFOUND_39+0x1e4>
  20317c:	016c3423          	sd	s6,8(s8)
  203180:	fc8cbb03          	ld	s6,-56(s9)
  203184:	016c3823          	sd	s6,16(s8)
  203188:	018c6b33          	or	s6,s8,s8
  20318c:	419b0b33          	sub	s6,s6,s9
  203190:	003b5b13          	srli	s6,s6,0x3
  203194:	fd6cb423          	sd	s6,-56(s9)
  203198:	00000097          	auipc	ra,0x0
  20319c:	00c08093          	addi	ra,ra,12 # 2031a4 <cml_NOTFOUND_39+0x1cc>
  2031a0:	979fe06f          	j	201b18 <cml_net_enqueue_10>
  2031a4:	010c3b03          	ld	s6,16(s8)
  2031a8:	fd6cb423          	sd	s6,-56(s9)
  2031ac:	018c0c13          	addi	s8,s8,24
  2031b0:	018c3083          	ld	ra,24(s8)
  2031b4:	010c3683          	ld	a3,16(s8)
  2031b8:	0100006f          	j	2031c8 <cml_NOTFOUND_39+0x1f0>
  2031bc:	018c3083          	ld	ra,24(s8)
  2031c0:	010c3683          	ld	a3,16(s8)
  2031c4:	d58fe06f          	j	20171c <cml__Raise_4>
  2031c8:	00106593          	ori	a1,zero,1
  2031cc:	fffff537          	lui	a0,0xfffff
  2031d0:	87854513          	xori	a0,a0,-1928
  2031d4:	01a50633          	add	a2,a0,s10
  2031d8:	00168513          	addi	a0,a3,1
  2031dc:	00a63023          	sd	a0,0(a2) # 0 <.Lline_table_start0>
  2031e0:	0080006f          	j	2031e8 <cml_NOTFOUND_39+0x210>
  2031e4:	d38fe06f          	j	20171c <cml__Raise_4>
  2031e8:	00b5e533          	or	a0,a1,a1
  2031ec:	dfdff06f          	j	202fe8 <cml_NOTFOUND_39+0x10>

00000000002031f0 <cml_NOTFOUND_40>:
  2031f0:	ff0c0c13          	addi	s8,s8,-16
  2031f4:	019c7663          	bgeu	s8,s9,203200 <cml_NOTFOUND_40+0x10>
  2031f8:	00206513          	ori	a0,zero,2
  2031fc:	ea5fd06f          	j	2010a0 <cake_exit>
  203200:	00006f93          	ori	t6,zero,0
  203204:	13f50e63          	beq	a0,t6,203340 <cml_NOTFOUND_40+0x150>
  203208:	fe8cb503          	ld	a0,-24(s9)
  20320c:	00151513          	slli	a0,a0,0x1
  203210:	01a50533          	add	a0,a0,s10
  203214:	fc053503          	ld	a0,-64(a0) # ffffffffffffefc0 <__sel4_ipc_buffer_obj+0xffffffffffdf0fc0>
  203218:	fe8cb583          	ld	a1,-24(s9)
  20321c:	00159593          	slli	a1,a1,0x1
  203220:	01a585b3          	add	a1,a1,s10
  203224:	fb05b583          	ld	a1,-80(a1)
  203228:	001c3423          	sd	ra,8(s8)
  20322c:	01e06b13          	ori	s6,zero,30
  203230:	016c3023          	sd	s6,0(s8)
  203234:	fe8c0c13          	addi	s8,s8,-24
  203238:	019c7663          	bgeu	s8,s9,203244 <cml_NOTFOUND_40+0x54>
  20323c:	00206513          	ori	a0,zero,2
  203240:	e61fd06f          	j	2010a0 <cake_exit>
  203244:	00106b13          	ori	s6,zero,1
  203248:	016c3023          	sd	s6,0(s8)
  20324c:	00000b17          	auipc	s6,0x0
  203250:	0f0b0b13          	addi	s6,s6,240 # 20333c <cml_NOTFOUND_40+0x14c>
  203254:	016c3423          	sd	s6,8(s8)
  203258:	fc8cbb03          	ld	s6,-56(s9)
  20325c:	016c3823          	sd	s6,16(s8)
  203260:	018c6b33          	or	s6,s8,s8
  203264:	419b0b33          	sub	s6,s6,s9
  203268:	003b5b13          	srli	s6,s6,0x3
  20326c:	fd6cb423          	sd	s6,-56(s9)
  203270:	00000097          	auipc	ra,0x0
  203274:	00c08093          	addi	ra,ra,12 # 20327c <cml_NOTFOUND_40+0x8c>
  203278:	9e1fe06f          	j	201c58 <cml_net_require_signal_14>
  20327c:	010c3b03          	ld	s6,16(s8)
  203280:	fd6cb423          	sd	s6,-56(s9)
  203284:	018c0c13          	addi	s8,s8,24
  203288:	00006f93          	ori	t6,zero,0
  20328c:	01f51663          	bne	a0,t6,203298 <cml_NOTFOUND_40+0xa8>
  203290:	008c3083          	ld	ra,8(s8)
  203294:	0a40006f          	j	203338 <cml_NOTFOUND_40+0x148>
  203298:	fe8cb083          	ld	ra,-24(s9)
  20329c:	00109093          	slli	ra,ra,0x1
  2032a0:	01a080b3          	add	ra,ra,s10
  2032a4:	fc00b503          	ld	a0,-64(ra)
  2032a8:	01f06b13          	ori	s6,zero,31
  2032ac:	016c3023          	sd	s6,0(s8)
  2032b0:	fe8c0c13          	addi	s8,s8,-24
  2032b4:	019c7663          	bgeu	s8,s9,2032c0 <cml_NOTFOUND_40+0xd0>
  2032b8:	00206513          	ori	a0,zero,2
  2032bc:	de5fd06f          	j	2010a0 <cake_exit>
  2032c0:	00106b13          	ori	s6,zero,1
  2032c4:	016c3023          	sd	s6,0(s8)
  2032c8:	00000b17          	auipc	s6,0x0
  2032cc:	040b0b13          	addi	s6,s6,64 # 203308 <cml_NOTFOUND_40+0x118>
  2032d0:	016c3423          	sd	s6,8(s8)
  2032d4:	fc8cbb03          	ld	s6,-56(s9)
  2032d8:	016c3823          	sd	s6,16(s8)
  2032dc:	018c6b33          	or	s6,s8,s8
  2032e0:	419b0b33          	sub	s6,s6,s9
  2032e4:	003b5b13          	srli	s6,s6,0x3
  2032e8:	fd6cb423          	sd	s6,-56(s9)
  2032ec:	00000097          	auipc	ra,0x0
  2032f0:	00c08093          	addi	ra,ra,12 # 2032f8 <cml_NOTFOUND_40+0x108>
  2032f4:	955fe06f          	j	201c48 <cml_net_cancel_signal_13>
  2032f8:	010c3b03          	ld	s6,16(s8)
  2032fc:	fd6cb423          	sd	s6,-56(s9)
  203300:	018c0c13          	addi	s8,s8,24
  203304:	0080006f          	j	20330c <cml_NOTFOUND_40+0x11c>
  203308:	c14fe06f          	j	20171c <cml__Raise_4>
  20330c:	00006513          	ori	a0,zero,0
  203310:	fe8cb083          	ld	ra,-24(s9)
  203314:	00109093          	slli	ra,ra,0x1
  203318:	01a080b3          	add	ra,ra,s10
  20331c:	fe80b583          	ld	a1,-24(ra)
  203320:	00006613          	ori	a2,zero,0
  203324:	00006693          	ori	a3,zero,0
  203328:	00000097          	auipc	ra,0x0
  20332c:	00c08093          	addi	ra,ra,12 # 203334 <cml_NOTFOUND_40+0x144>
  203330:	d21fd06f          	j	201050 <cake_ffimicrokit_notify>
  203334:	008c3083          	ld	ra,8(s8)
  203338:	0080006f          	j	203340 <cml_NOTFOUND_40+0x150>
  20333c:	be0fe06f          	j	20171c <cml__Raise_4>
  203340:	00006513          	ori	a0,zero,0
  203344:	010c0c13          	addi	s8,s8,16
  203348:	00008067          	ret

000000000020334c <cml_handle_irq_set_dma_41>:
  20334c:	fe8c0c13          	addi	s8,s8,-24
  203350:	019c7663          	bgeu	s8,s9,20335c <cml_handle_irq_set_dma_41+0x10>
  203354:	00206513          	ori	a0,zero,2
  203358:	d49fd06f          	j	2010a0 <cake_exit>
  20335c:	00a565b3          	or	a1,a0,a0
  203360:	00001537          	lui	a0,0x1
  203364:	16050513          	addi	a0,a0,352 # 1160 <.Ldebug_abbrev0+0x19d>
  203368:	001c3423          	sd	ra,8(s8)
  20336c:	00bc3823          	sd	a1,16(s8)
  203370:	02006b13          	ori	s6,zero,32
  203374:	016c3023          	sd	s6,0(s8)
  203378:	fe8c0c13          	addi	s8,s8,-24
  20337c:	019c7663          	bgeu	s8,s9,203388 <cml_handle_irq_set_dma_41+0x3c>
  203380:	00206513          	ori	a0,zero,2
  203384:	d1dfd06f          	j	2010a0 <cake_exit>
  203388:	00106b13          	ori	s6,zero,1
  20338c:	016c3023          	sd	s6,0(s8)
  203390:	00000b17          	auipc	s6,0x0
  203394:	0d8b0b13          	addi	s6,s6,216 # 203468 <cml_handle_irq_set_dma_41+0x11c>
  203398:	016c3423          	sd	s6,8(s8)
  20339c:	fc8cbb03          	ld	s6,-56(s9)
  2033a0:	016c3823          	sd	s6,16(s8)
  2033a4:	018c6b33          	or	s6,s8,s8
  2033a8:	419b0b33          	sub	s6,s6,s9
  2033ac:	003b5b13          	srli	s6,s6,0x3
  2033b0:	fd6cb423          	sd	s6,-56(s9)
  2033b4:	00000097          	auipc	ra,0x0
  2033b8:	00c08093          	addi	ra,ra,12 # 2033c0 <cml_handle_irq_set_dma_41+0x74>
  2033bc:	991fe06f          	j	201d4c <cml_get_dma_reg_19>
  2033c0:	010c3b03          	ld	s6,16(s8)
  2033c4:	fd6cb423          	sd	s6,-56(s9)
  2033c8:	018c0c13          	addi	s8,s8,24
  2033cc:	010c3083          	ld	ra,16(s8)
  2033d0:	008c3b03          	ld	s6,8(s8)
  2033d4:	016c3823          	sd	s6,16(s8)
  2033d8:	00a0f5b3          	and	a1,ra,a0
  2033dc:	00001537          	lui	a0,0x1
  2033e0:	16050513          	addi	a0,a0,352 # 1160 <.Ldebug_abbrev0+0x19d>
  2033e4:	00b5e0b3          	or	ra,a1,a1
  2033e8:	00b0f5b3          	and	a1,ra,a1
  2033ec:	02106b13          	ori	s6,zero,33
  2033f0:	016c3023          	sd	s6,0(s8)
  2033f4:	fe8c0c13          	addi	s8,s8,-24
  2033f8:	019c7663          	bgeu	s8,s9,203404 <cml_handle_irq_set_dma_41+0xb8>
  2033fc:	00206513          	ori	a0,zero,2
  203400:	ca1fd06f          	j	2010a0 <cake_exit>
  203404:	00106b13          	ori	s6,zero,1
  203408:	016c3023          	sd	s6,0(s8)
  20340c:	00000b17          	auipc	s6,0x0
  203410:	044b0b13          	addi	s6,s6,68 # 203450 <cml_handle_irq_set_dma_41+0x104>
  203414:	016c3423          	sd	s6,8(s8)
  203418:	fc8cbb03          	ld	s6,-56(s9)
  20341c:	016c3823          	sd	s6,16(s8)
  203420:	018c6b33          	or	s6,s8,s8
  203424:	419b0b33          	sub	s6,s6,s9
  203428:	003b5b13          	srli	s6,s6,0x3
  20342c:	fd6cb423          	sd	s6,-56(s9)
  203430:	00000097          	auipc	ra,0x0
  203434:	00c08093          	addi	ra,ra,12 # 20343c <cml_handle_irq_set_dma_41+0xf0>
  203438:	931fe06f          	j	201d68 <cml_set_dma_reg_20>
  20343c:	010c3b03          	ld	s6,16(s8)
  203440:	fd6cb423          	sd	s6,-56(s9)
  203444:	018c0c13          	addi	s8,s8,24
  203448:	010c3083          	ld	ra,16(s8)
  20344c:	00c0006f          	j	203458 <cml_handle_irq_set_dma_41+0x10c>
  203450:	010c3083          	ld	ra,16(s8)
  203454:	ac8fe06f          	j	20171c <cml__Raise_4>
  203458:	00006513          	ori	a0,zero,0
  20345c:	018c0c13          	addi	s8,s8,24
  203460:	00008067          	ret
  203464:	0080006f          	j	20346c <cml_handle_irq_42>
  203468:	ab4fe06f          	j	20171c <cml__Raise_4>

000000000020346c <cml_handle_irq_42>:
  20346c:	fe8c0c13          	addi	s8,s8,-24
  203470:	019c7663          	bgeu	s8,s9,20347c <cml_handle_irq_42+0x10>
  203474:	00206513          	ori	a0,zero,2
  203478:	c29fd06f          	j	2010a0 <cake_exit>
  20347c:	00001537          	lui	a0,0x1
  203480:	16050513          	addi	a0,a0,352 # 1160 <.Ldebug_abbrev0+0x19d>
  203484:	001c3823          	sd	ra,16(s8)
  203488:	02206b13          	ori	s6,zero,34
  20348c:	016c3023          	sd	s6,0(s8)
  203490:	fe8c0c13          	addi	s8,s8,-24
  203494:	019c7663          	bgeu	s8,s9,2034a0 <cml_handle_irq_42+0x34>
  203498:	00206513          	ori	a0,zero,2
  20349c:	c05fd06f          	j	2010a0 <cake_exit>
  2034a0:	00106b13          	ori	s6,zero,1
  2034a4:	016c3023          	sd	s6,0(s8)
  2034a8:	00000b17          	auipc	s6,0x0
  2034ac:	0c0b0b13          	addi	s6,s6,192 # 203568 <cml_handle_irq_42+0xfc>
  2034b0:	016c3423          	sd	s6,8(s8)
  2034b4:	fc8cbb03          	ld	s6,-56(s9)
  2034b8:	016c3823          	sd	s6,16(s8)
  2034bc:	018c6b33          	or	s6,s8,s8
  2034c0:	419b0b33          	sub	s6,s6,s9
  2034c4:	003b5b13          	srli	s6,s6,0x3
  2034c8:	fd6cb423          	sd	s6,-56(s9)
  2034cc:	00000097          	auipc	ra,0x0
  2034d0:	00c08093          	addi	ra,ra,12 # 2034d8 <cml_handle_irq_42+0x6c>
  2034d4:	879fe06f          	j	201d4c <cml_get_dma_reg_19>
  2034d8:	010c3b03          	ld	s6,16(s8)
  2034dc:	fd6cb423          	sd	s6,-56(s9)
  2034e0:	018c0c13          	addi	s8,s8,24
  2034e4:	00ac3423          	sd	a0,8(s8)
  2034e8:	02306b13          	ori	s6,zero,35
  2034ec:	016c3023          	sd	s6,0(s8)
  2034f0:	fe8c0c13          	addi	s8,s8,-24
  2034f4:	019c7663          	bgeu	s8,s9,203500 <cml_handle_irq_42+0x94>
  2034f8:	00206513          	ori	a0,zero,2
  2034fc:	ba5fd06f          	j	2010a0 <cake_exit>
  203500:	00106b13          	ori	s6,zero,1
  203504:	016c3023          	sd	s6,0(s8)
  203508:	00000b17          	auipc	s6,0x0
  20350c:	048b0b13          	addi	s6,s6,72 # 203550 <cml_handle_irq_42+0xe4>
  203510:	016c3423          	sd	s6,8(s8)
  203514:	fc8cbb03          	ld	s6,-56(s9)
  203518:	016c3823          	sd	s6,16(s8)
  20351c:	018c6b33          	or	s6,s8,s8
  203520:	419b0b33          	sub	s6,s6,s9
  203524:	003b5b13          	srli	s6,s6,0x3
  203528:	fd6cb423          	sd	s6,-56(s9)
  20352c:	00000097          	auipc	ra,0x0
  203530:	00c08093          	addi	ra,ra,12 # 203538 <cml_handle_irq_42+0xcc>
  203534:	e19ff06f          	j	20334c <cml_handle_irq_set_dma_41>
  203538:	010c3b03          	ld	s6,16(s8)
  20353c:	fd6cb423          	sd	s6,-56(s9)
  203540:	018c0c13          	addi	s8,s8,24
  203544:	010c3083          	ld	ra,16(s8)
  203548:	008c3583          	ld	a1,8(s8)
  20354c:	0100006f          	j	20355c <cml_handle_irq_42+0xf0>
  203550:	010c3083          	ld	ra,16(s8)
  203554:	008c3583          	ld	a1,8(s8)
  203558:	9c4fe06f          	j	20171c <cml__Raise_4>
  20355c:	00b5e533          	or	a0,a1,a1
  203560:	01c0006f          	j	20357c <cml_NOTFOUND_43+0x10>
  203564:	0080006f          	j	20356c <cml_NOTFOUND_43>
  203568:	9b4fe06f          	j	20171c <cml__Raise_4>

000000000020356c <cml_NOTFOUND_43>:
  20356c:	fe8c0c13          	addi	s8,s8,-24
  203570:	019c7663          	bgeu	s8,s9,20357c <cml_NOTFOUND_43+0x10>
  203574:	00206513          	ori	a0,zero,2
  203578:	b29fd06f          	j	2010a0 <cake_exit>
  20357c:	0000d5b7          	lui	a1,0xd
  203580:	04158593          	addi	a1,a1,65 # d041 <.Ldebug_info0+0x7dfc>
  203584:	00b575b3          	and	a1,a0,a1
  203588:	00006f93          	ori	t6,zero,0
  20358c:	2df58263          	beq	a1,t6,203850 <cml_NOTFOUND_43+0x2e4>
  203590:	00a565b3          	or	a1,a0,a0
  203594:	0015f513          	andi	a0,a1,1
  203598:	00006f93          	ori	t6,zero,0
  20359c:	01f51663          	bne	a0,t6,2035a8 <cml_NOTFOUND_43+0x3c>
  2035a0:	001c3823          	sd	ra,16(s8)
  2035a4:	0dc0006f          	j	203680 <cml_NOTFOUND_43+0x114>
  2035a8:	001c3823          	sd	ra,16(s8)
  2035ac:	00bc3423          	sd	a1,8(s8)
  2035b0:	02406b13          	ori	s6,zero,36
  2035b4:	016c3023          	sd	s6,0(s8)
  2035b8:	fe8c0c13          	addi	s8,s8,-24
  2035bc:	019c7663          	bgeu	s8,s9,2035c8 <cml_NOTFOUND_43+0x5c>
  2035c0:	00206513          	ori	a0,zero,2
  2035c4:	addfd06f          	j	2010a0 <cake_exit>
  2035c8:	00106b13          	ori	s6,zero,1
  2035cc:	016c3023          	sd	s6,0(s8)
  2035d0:	00000b17          	auipc	s6,0x0
  2035d4:	040b0b13          	addi	s6,s6,64 # 203610 <cml_NOTFOUND_43+0xa4>
  2035d8:	016c3423          	sd	s6,8(s8)
  2035dc:	fc8cbb03          	ld	s6,-56(s9)
  2035e0:	016c3823          	sd	s6,16(s8)
  2035e4:	018c6b33          	or	s6,s8,s8
  2035e8:	419b0b33          	sub	s6,s6,s9
  2035ec:	003b5b13          	srli	s6,s6,0x3
  2035f0:	fd6cb423          	sd	s6,-56(s9)
  2035f4:	00000097          	auipc	ra,0x0
  2035f8:	00c08093          	addi	ra,ra,12 # 203600 <cml_NOTFOUND_43+0x94>
  2035fc:	9d5ff06f          	j	202fd0 <cml_tx_return_38>
  203600:	010c3b03          	ld	s6,16(s8)
  203604:	fd6cb423          	sd	s6,-56(s9)
  203608:	018c0c13          	addi	s8,s8,24
  20360c:	0080006f          	j	203614 <cml_NOTFOUND_43+0xa8>
  203610:	90cfe06f          	j	20171c <cml__Raise_4>
  203614:	02506b13          	ori	s6,zero,37
  203618:	016c3023          	sd	s6,0(s8)
  20361c:	fe8c0c13          	addi	s8,s8,-24
  203620:	019c7663          	bgeu	s8,s9,20362c <cml_NOTFOUND_43+0xc0>
  203624:	00206513          	ori	a0,zero,2
  203628:	a79fd06f          	j	2010a0 <cake_exit>
  20362c:	00106b13          	ori	s6,zero,1
  203630:	016c3023          	sd	s6,0(s8)
  203634:	00000b17          	auipc	s6,0x0
  203638:	044b0b13          	addi	s6,s6,68 # 203678 <cml_NOTFOUND_43+0x10c>
  20363c:	016c3423          	sd	s6,8(s8)
  203640:	fc8cbb03          	ld	s6,-56(s9)
  203644:	016c3823          	sd	s6,16(s8)
  203648:	018c6b33          	or	s6,s8,s8
  20364c:	419b0b33          	sub	s6,s6,s9
  203650:	003b5b13          	srli	s6,s6,0x3
  203654:	fd6cb423          	sd	s6,-56(s9)
  203658:	00000097          	auipc	ra,0x0
  20365c:	00c08093          	addi	ra,ra,12 # 203664 <cml_NOTFOUND_43+0xf8>
  203660:	b98ff06f          	j	2029f8 <cml_tx_provide_32>
  203664:	010c3b03          	ld	s6,16(s8)
  203668:	fd6cb423          	sd	s6,-56(s9)
  20366c:	018c0c13          	addi	s8,s8,24
  203670:	008c3583          	ld	a1,8(s8)
  203674:	00c0006f          	j	203680 <cml_NOTFOUND_43+0x114>
  203678:	008c3583          	ld	a1,8(s8)
  20367c:	8a0fe06f          	j	20171c <cml__Raise_4>
  203680:	0405f093          	andi	ra,a1,64
  203684:	00006f93          	ori	t6,zero,0
  203688:	07f08a63          	beq	ra,t6,2036fc <cml_NOTFOUND_43+0x190>
  20368c:	00bc3423          	sd	a1,8(s8)
  203690:	02606b13          	ori	s6,zero,38
  203694:	016c3023          	sd	s6,0(s8)
  203698:	fe8c0c13          	addi	s8,s8,-24
  20369c:	019c7663          	bgeu	s8,s9,2036a8 <cml_NOTFOUND_43+0x13c>
  2036a0:	00206513          	ori	a0,zero,2
  2036a4:	9fdfd06f          	j	2010a0 <cake_exit>
  2036a8:	00106b13          	ori	s6,zero,1
  2036ac:	016c3023          	sd	s6,0(s8)
  2036b0:	00000b17          	auipc	s6,0x0
  2036b4:	044b0b13          	addi	s6,s6,68 # 2036f4 <cml_NOTFOUND_43+0x188>
  2036b8:	016c3423          	sd	s6,8(s8)
  2036bc:	fc8cbb03          	ld	s6,-56(s9)
  2036c0:	016c3823          	sd	s6,16(s8)
  2036c4:	018c6b33          	or	s6,s8,s8
  2036c8:	419b0b33          	sub	s6,s6,s9
  2036cc:	003b5b13          	srli	s6,s6,0x3
  2036d0:	fd6cb423          	sd	s6,-56(s9)
  2036d4:	00000097          	auipc	ra,0x0
  2036d8:	00c08093          	addi	ra,ra,12 # 2036e0 <cml_NOTFOUND_43+0x174>
  2036dc:	d89fe06f          	j	202464 <cml_rx_return_29>
  2036e0:	010c3b03          	ld	s6,16(s8)
  2036e4:	fd6cb423          	sd	s6,-56(s9)
  2036e8:	018c0c13          	addi	s8,s8,24
  2036ec:	008c3583          	ld	a1,8(s8)
  2036f0:	00c0006f          	j	2036fc <cml_NOTFOUND_43+0x190>
  2036f4:	008c3583          	ld	a1,8(s8)
  2036f8:	824fe06f          	j	20171c <cml__Raise_4>
  2036fc:	000050b7          	lui	ra,0x5
  203700:	00008093          	mv	ra,ra
  203704:	0015f0b3          	and	ra,a1,ra
  203708:	00006f93          	ori	t6,zero,0
  20370c:	05f08863          	beq	ra,t6,20375c <cml_NOTFOUND_43+0x1f0>
  203710:	000010b7          	lui	ra,0x1
  203714:	00008093          	mv	ra,ra
  203718:	0015f0b3          	and	ra,a1,ra
  20371c:	00006f93          	ori	t6,zero,0
  203720:	03f08e63          	beq	ra,t6,20375c <cml_NOTFOUND_43+0x1f0>
  203724:	38f06693          	ori	a3,zero,911
  203728:	00006613          	ori	a2,zero,0
  20372c:	00c66533          	or	a0,a2,a2
  203730:	00d6e5b3          	or	a1,a3,a3
  203734:	00000097          	auipc	ra,0x0
  203738:	00c08093          	addi	ra,ra,12 # 203740 <cml_NOTFOUND_43+0x1d4>
  20373c:	945fd06f          	j	201080 <cake_ffidebug_print>
  203740:	00006693          	ori	a3,zero,0
  203744:	00d6e533          	or	a0,a3,a3
  203748:	00d6e5b3          	or	a1,a3,a3
  20374c:	00d6e633          	or	a2,a3,a3
  203750:	00000097          	auipc	ra,0x0
  203754:	00c08093          	addi	ra,ra,12 # 20375c <cml_NOTFOUND_43+0x1f0>
  203758:	909fd06f          	j	201060 <cake_ffiassert>
  20375c:	00001537          	lui	a0,0x1
  203760:	16050513          	addi	a0,a0,352 # 1160 <.Ldebug_abbrev0+0x19d>
  203764:	02706b13          	ori	s6,zero,39
  203768:	016c3023          	sd	s6,0(s8)
  20376c:	fe8c0c13          	addi	s8,s8,-24
  203770:	019c7663          	bgeu	s8,s9,20377c <cml_NOTFOUND_43+0x210>
  203774:	00206513          	ori	a0,zero,2
  203778:	929fd06f          	j	2010a0 <cake_exit>
  20377c:	00106b13          	ori	s6,zero,1
  203780:	016c3023          	sd	s6,0(s8)
  203784:	00000b17          	auipc	s6,0x0
  203788:	044b0b13          	addi	s6,s6,68 # 2037c8 <cml_NOTFOUND_43+0x25c>
  20378c:	016c3423          	sd	s6,8(s8)
  203790:	fc8cbb03          	ld	s6,-56(s9)
  203794:	016c3823          	sd	s6,16(s8)
  203798:	018c6b33          	or	s6,s8,s8
  20379c:	419b0b33          	sub	s6,s6,s9
  2037a0:	003b5b13          	srli	s6,s6,0x3
  2037a4:	fd6cb423          	sd	s6,-56(s9)
  2037a8:	00000097          	auipc	ra,0x0
  2037ac:	00c08093          	addi	ra,ra,12 # 2037b4 <cml_NOTFOUND_43+0x248>
  2037b0:	d9cfe06f          	j	201d4c <cml_get_dma_reg_19>
  2037b4:	010c3b03          	ld	s6,16(s8)
  2037b8:	fd6cb423          	sd	s6,-56(s9)
  2037bc:	018c0c13          	addi	s8,s8,24
  2037c0:	00a560b3          	or	ra,a0,a0
  2037c4:	0080006f          	j	2037cc <cml_NOTFOUND_43+0x260>
  2037c8:	f55fd06f          	j	20171c <cml__Raise_4>
  2037cc:	0010e533          	or	a0,ra,ra
  2037d0:	001c3423          	sd	ra,8(s8)
  2037d4:	02806b13          	ori	s6,zero,40
  2037d8:	016c3023          	sd	s6,0(s8)
  2037dc:	fe8c0c13          	addi	s8,s8,-24
  2037e0:	019c7663          	bgeu	s8,s9,2037ec <cml_NOTFOUND_43+0x280>
  2037e4:	00206513          	ori	a0,zero,2
  2037e8:	8b9fd06f          	j	2010a0 <cake_exit>
  2037ec:	00106b13          	ori	s6,zero,1
  2037f0:	016c3023          	sd	s6,0(s8)
  2037f4:	00000b17          	auipc	s6,0x0
  2037f8:	048b0b13          	addi	s6,s6,72 # 20383c <cml_NOTFOUND_43+0x2d0>
  2037fc:	016c3423          	sd	s6,8(s8)
  203800:	fc8cbb03          	ld	s6,-56(s9)
  203804:	016c3823          	sd	s6,16(s8)
  203808:	018c6b33          	or	s6,s8,s8
  20380c:	419b0b33          	sub	s6,s6,s9
  203810:	003b5b13          	srli	s6,s6,0x3
  203814:	fd6cb423          	sd	s6,-56(s9)
  203818:	00000097          	auipc	ra,0x0
  20381c:	00c08093          	addi	ra,ra,12 # 203824 <cml_NOTFOUND_43+0x2b8>
  203820:	b2dff06f          	j	20334c <cml_handle_irq_set_dma_41>
  203824:	010c3b03          	ld	s6,16(s8)
  203828:	fd6cb423          	sd	s6,-56(s9)
  20382c:	018c0c13          	addi	s8,s8,24
  203830:	010c3083          	ld	ra,16(s8)
  203834:	008c3583          	ld	a1,8(s8)
  203838:	0100006f          	j	203848 <cml_NOTFOUND_43+0x2dc>
  20383c:	010c3083          	ld	ra,16(s8)
  203840:	008c3583          	ld	a1,8(s8)
  203844:	ed9fd06f          	j	20171c <cml__Raise_4>
  203848:	00b5e533          	or	a0,a1,a1
  20384c:	d31ff06f          	j	20357c <cml_NOTFOUND_43+0x10>
  203850:	018c0c13          	addi	s8,s8,24
  203854:	0040006f          	j	203858 <cml_NOTFOUND_44>

0000000000203858 <cml_NOTFOUND_44>:
  203858:	00006513          	ori	a0,zero,0
  20385c:	00008067          	ret

0000000000203860 <cml_notified_46>:
  203860:	fe8c0c13          	addi	s8,s8,-24
  203864:	019c7663          	bgeu	s8,s9,203870 <cml_notified_46+0x10>
  203868:	00206513          	ori	a0,zero,2
  20386c:	835fd06f          	j	2010a0 <cake_exit>
  203870:	fe8cb583          	ld	a1,-24(s9)
  203874:	00159593          	slli	a1,a1,0x1
  203878:	01a585b3          	add	a1,a1,s10
  20387c:	ff85b583          	ld	a1,-8(a1)
  203880:	00b50663          	beq	a0,a1,20388c <cml_notified_46+0x2c>
  203884:	001c3823          	sd	ra,16(s8)
  203888:	09c0006f          	j	203924 <cml_notified_46+0xc4>
  20388c:	001c3823          	sd	ra,16(s8)
  203890:	00ac3423          	sd	a0,8(s8)
  203894:	02906b13          	ori	s6,zero,41
  203898:	016c3023          	sd	s6,0(s8)
  20389c:	fe8c0c13          	addi	s8,s8,-24
  2038a0:	019c7663          	bgeu	s8,s9,2038ac <cml_notified_46+0x4c>
  2038a4:	00206513          	ori	a0,zero,2
  2038a8:	ff8fd06f          	j	2010a0 <cake_exit>
  2038ac:	00106b13          	ori	s6,zero,1
  2038b0:	016c3023          	sd	s6,0(s8)
  2038b4:	00000b17          	auipc	s6,0x0
  2038b8:	040b0b13          	addi	s6,s6,64 # 2038f4 <cml_notified_46+0x94>
  2038bc:	016c3423          	sd	s6,8(s8)
  2038c0:	fc8cbb03          	ld	s6,-56(s9)
  2038c4:	016c3823          	sd	s6,16(s8)
  2038c8:	018c6b33          	or	s6,s8,s8
  2038cc:	419b0b33          	sub	s6,s6,s9
  2038d0:	003b5b13          	srli	s6,s6,0x3
  2038d4:	fd6cb423          	sd	s6,-56(s9)
  2038d8:	00000097          	auipc	ra,0x0
  2038dc:	00c08093          	addi	ra,ra,12 # 2038e4 <cml_notified_46+0x84>
  2038e0:	b8dff06f          	j	20346c <cml_handle_irq_42>
  2038e4:	010c3b03          	ld	s6,16(s8)
  2038e8:	fd6cb423          	sd	s6,-56(s9)
  2038ec:	018c0c13          	addi	s8,s8,24
  2038f0:	0080006f          	j	2038f8 <cml_notified_46+0x98>
  2038f4:	e29fd06f          	j	20171c <cml__Raise_4>
  2038f8:	fe8cb083          	ld	ra,-24(s9)
  2038fc:	00109093          	slli	ra,ra,0x1
  203900:	01a080b3          	add	ra,ra,s10
  203904:	ff80b583          	ld	a1,-8(ra)
  203908:	00006693          	ori	a3,zero,0
  20390c:	00d6e533          	or	a0,a3,a3
  203910:	00d6e633          	or	a2,a3,a3
  203914:	00000097          	auipc	ra,0x0
  203918:	00c08093          	addi	ra,ra,12 # 203920 <cml_notified_46+0xc0>
  20391c:	f54fd06f          	j	201070 <cake_ffimicrokit_deferred_irq_ack>
  203920:	008c3503          	ld	a0,8(s8)
  203924:	00a565b3          	or	a1,a0,a0
  203928:	fe8cb083          	ld	ra,-24(s9)
  20392c:	00109093          	slli	ra,ra,0x1
  203930:	01a080b3          	add	ra,ra,s10
  203934:	ff00b083          	ld	ra,-16(ra)
  203938:	00158463          	beq	a1,ra,203940 <cml_notified_46+0xe0>
  20393c:	0740006f          	j	2039b0 <cml_notified_46+0x150>
  203940:	00bc3423          	sd	a1,8(s8)
  203944:	02a06b13          	ori	s6,zero,42
  203948:	016c3023          	sd	s6,0(s8)
  20394c:	fe8c0c13          	addi	s8,s8,-24
  203950:	019c7663          	bgeu	s8,s9,20395c <cml_notified_46+0xfc>
  203954:	00206513          	ori	a0,zero,2
  203958:	f48fd06f          	j	2010a0 <cake_exit>
  20395c:	00106b13          	ori	s6,zero,1
  203960:	016c3023          	sd	s6,0(s8)
  203964:	00000b17          	auipc	s6,0x0
  203968:	044b0b13          	addi	s6,s6,68 # 2039a8 <cml_notified_46+0x148>
  20396c:	016c3423          	sd	s6,8(s8)
  203970:	fc8cbb03          	ld	s6,-56(s9)
  203974:	016c3823          	sd	s6,16(s8)
  203978:	018c6b33          	or	s6,s8,s8
  20397c:	419b0b33          	sub	s6,s6,s9
  203980:	003b5b13          	srli	s6,s6,0x3
  203984:	fd6cb423          	sd	s6,-56(s9)
  203988:	00000097          	auipc	ra,0x0
  20398c:	00c08093          	addi	ra,ra,12 # 203994 <cml_notified_46+0x134>
  203990:	ce8fe06f          	j	201e78 <cml_rx_provide_23>
  203994:	010c3b03          	ld	s6,16(s8)
  203998:	fd6cb423          	sd	s6,-56(s9)
  20399c:	018c0c13          	addi	s8,s8,24
  2039a0:	008c3583          	ld	a1,8(s8)
  2039a4:	00c0006f          	j	2039b0 <cml_notified_46+0x150>
  2039a8:	008c3583          	ld	a1,8(s8)
  2039ac:	d71fd06f          	j	20171c <cml__Raise_4>
  2039b0:	fe8cb083          	ld	ra,-24(s9)
  2039b4:	00109093          	slli	ra,ra,0x1
  2039b8:	01a080b3          	add	ra,ra,s10
  2039bc:	fe80b083          	ld	ra,-24(ra)
  2039c0:	00158463          	beq	a1,ra,2039c8 <cml_notified_46+0x168>
  2039c4:	0740006f          	j	203a38 <cml_notified_46+0x1d8>
  2039c8:	00bc3423          	sd	a1,8(s8)
  2039cc:	02b06b13          	ori	s6,zero,43
  2039d0:	016c3023          	sd	s6,0(s8)
  2039d4:	fe8c0c13          	addi	s8,s8,-24
  2039d8:	019c7663          	bgeu	s8,s9,2039e4 <cml_notified_46+0x184>
  2039dc:	00206513          	ori	a0,zero,2
  2039e0:	ec0fd06f          	j	2010a0 <cake_exit>
  2039e4:	00106b13          	ori	s6,zero,1
  2039e8:	016c3023          	sd	s6,0(s8)
  2039ec:	00000b17          	auipc	s6,0x0
  2039f0:	044b0b13          	addi	s6,s6,68 # 203a30 <cml_notified_46+0x1d0>
  2039f4:	016c3423          	sd	s6,8(s8)
  2039f8:	fc8cbb03          	ld	s6,-56(s9)
  2039fc:	016c3823          	sd	s6,16(s8)
  203a00:	018c6b33          	or	s6,s8,s8
  203a04:	419b0b33          	sub	s6,s6,s9
  203a08:	003b5b13          	srli	s6,s6,0x3
  203a0c:	fd6cb423          	sd	s6,-56(s9)
  203a10:	00000097          	auipc	ra,0x0
  203a14:	00c08093          	addi	ra,ra,12 # 203a1c <cml_notified_46+0x1bc>
  203a18:	fe1fe06f          	j	2029f8 <cml_tx_provide_32>
  203a1c:	010c3b03          	ld	s6,16(s8)
  203a20:	fd6cb423          	sd	s6,-56(s9)
  203a24:	018c0c13          	addi	s8,s8,24
  203a28:	008c3583          	ld	a1,8(s8)
  203a2c:	00c0006f          	j	203a38 <cml_notified_46+0x1d8>
  203a30:	008c3583          	ld	a1,8(s8)
  203a34:	ce9fd06f          	j	20171c <cml__Raise_4>
  203a38:	fe8cb083          	ld	ra,-24(s9)
  203a3c:	00109093          	slli	ra,ra,0x1
  203a40:	01a080b3          	add	ra,ra,s10
  203a44:	ff80b083          	ld	ra,-8(ra)
  203a48:	00159663          	bne	a1,ra,203a54 <cml_notified_46+0x1f4>
  203a4c:	00006093          	ori	ra,zero,0
  203a50:	0080006f          	j	203a58 <cml_notified_46+0x1f8>
  203a54:	00106093          	ori	ra,zero,1
  203a58:	fe8cb503          	ld	a0,-24(s9)
  203a5c:	00151513          	slli	a0,a0,0x1
  203a60:	01a50533          	add	a0,a0,s10
  203a64:	fe853503          	ld	a0,-24(a0)
  203a68:	00a59663          	bne	a1,a0,203a74 <cml_notified_46+0x214>
  203a6c:	00006613          	ori	a2,zero,0
  203a70:	0080006f          	j	203a78 <cml_notified_46+0x218>
  203a74:	00106613          	ori	a2,zero,1
  203a78:	fe8cb503          	ld	a0,-24(s9)
  203a7c:	00151513          	slli	a0,a0,0x1
  203a80:	01a50533          	add	a0,a0,s10
  203a84:	ff053503          	ld	a0,-16(a0)
  203a88:	00a59663          	bne	a1,a0,203a94 <cml_notified_46+0x234>
  203a8c:	00006513          	ori	a0,zero,0
  203a90:	0080006f          	j	203a98 <cml_notified_46+0x238>
  203a94:	00106513          	ori	a0,zero,1
  203a98:	00c57533          	and	a0,a0,a2
  203a9c:	001570b3          	and	ra,a0,ra
  203aa0:	00006f93          	ori	t6,zero,0
  203aa4:	01f09663          	bne	ra,t6,203ab0 <cml_notified_46+0x250>
  203aa8:	010c3083          	ld	ra,16(s8)
  203aac:	0240006f          	j	203ad0 <cml_notified_46+0x270>
  203ab0:	ffff26b7          	lui	a3,0xffff2
  203ab4:	dd56c693          	xori	a3,a3,-555
  203ab8:	00006613          	ori	a2,zero,0
  203abc:	00c66533          	or	a0,a2,a2
  203ac0:	00000097          	auipc	ra,0x0
  203ac4:	00c08093          	addi	ra,ra,12 # 203acc <cml_notified_46+0x26c>
  203ac8:	db8fd06f          	j	201080 <cake_ffidebug_print>
  203acc:	010c3083          	ld	ra,16(s8)
  203ad0:	00006513          	ori	a0,zero,0
  203ad4:	018c0c13          	addi	s8,s8,24
  203ad8:	00008067          	ret

0000000000203adc <cake_codebuffer_begin>:
  203adc:	00000013          	nop
  203ae0:	00000013          	nop
  203ae4:	00000013          	nop
  203ae8:	00000013          	nop
  203aec:	00000013          	nop
  203af0:	00000013          	nop
  203af4:	00000013          	nop
  203af8:	00000013          	nop
  203afc:	00000013          	nop
  203b00:	00000013          	nop
  203b04:	00000013          	nop
  203b08:	00000013          	nop
  203b0c:	00000013          	nop
  203b10:	00000013          	nop
  203b14:	00000013          	nop
  203b18:	00000013          	nop
  203b1c:	00000013          	nop
  203b20:	00000013          	nop
  203b24:	00000013          	nop
  203b28:	00000013          	nop
  203b2c:	00000013          	nop
  203b30:	00000013          	nop
  203b34:	00000013          	nop
  203b38:	00000013          	nop
  203b3c:	00000013          	nop
  203b40:	00000013          	nop
  203b44:	00000013          	nop
  203b48:	00000013          	nop
  203b4c:	00000013          	nop
  203b50:	00000013          	nop
  203b54:	00000013          	nop
  203b58:	00000013          	nop
  203b5c:	00000013          	nop
  203b60:	00000013          	nop
  203b64:	00000013          	nop
  203b68:	00000013          	nop
  203b6c:	00000013          	nop
  203b70:	00000013          	nop
  203b74:	00000013          	nop
  203b78:	00000013          	nop
  203b7c:	00000013          	nop
  203b80:	00000013          	nop
  203b84:	00000013          	nop
  203b88:	00000013          	nop
  203b8c:	00000013          	nop
  203b90:	00000013          	nop
  203b94:	00000013          	nop
  203b98:	00000013          	nop
  203b9c:	00000013          	nop
  203ba0:	00000013          	nop
  203ba4:	00000013          	nop
  203ba8:	00000013          	nop
  203bac:	00000013          	nop
  203bb0:	00000013          	nop
  203bb4:	00000013          	nop
  203bb8:	00000013          	nop
  203bbc:	00000013          	nop
  203bc0:	00000013          	nop
  203bc4:	00000013          	nop
  203bc8:	00000013          	nop
  203bcc:	00000013          	nop
  203bd0:	00000013          	nop
  203bd4:	00000013          	nop
  203bd8:	00000013          	nop
  203bdc:	00000013          	nop
  203be0:	00000013          	nop
  203be4:	00000013          	nop
  203be8:	00000013          	nop
  203bec:	00000013          	nop
  203bf0:	00000013          	nop
  203bf4:	00000013          	nop
  203bf8:	00000013          	nop
  203bfc:	00000013          	nop
  203c00:	00000013          	nop
  203c04:	00000013          	nop
  203c08:	00000013          	nop
  203c0c:	00000013          	nop
  203c10:	00000013          	nop
  203c14:	00000013          	nop
  203c18:	00000013          	nop
  203c1c:	00000013          	nop
  203c20:	00000013          	nop
  203c24:	00000013          	nop
  203c28:	00000013          	nop
  203c2c:	00000013          	nop
  203c30:	00000013          	nop
  203c34:	00000013          	nop
  203c38:	00000013          	nop
  203c3c:	00000013          	nop
  203c40:	00000013          	nop
  203c44:	00000013          	nop
  203c48:	00000013          	nop
  203c4c:	00000013          	nop
  203c50:	00000013          	nop
  203c54:	00000013          	nop
  203c58:	00000013          	nop
  203c5c:	00000013          	nop
  203c60:	00000013          	nop
  203c64:	00000013          	nop
  203c68:	00000013          	nop
  203c6c:	00000013          	nop
  203c70:	00000013          	nop
  203c74:	00000013          	nop
  203c78:	00000013          	nop
  203c7c:	00000013          	nop
  203c80:	00000013          	nop
  203c84:	00000013          	nop
  203c88:	00000013          	nop
  203c8c:	00000013          	nop
  203c90:	00000013          	nop
  203c94:	00000013          	nop
  203c98:	00000013          	nop
  203c9c:	00000013          	nop
  203ca0:	00000013          	nop
  203ca4:	00000013          	nop
  203ca8:	00000013          	nop
  203cac:	00000013          	nop
  203cb0:	00000013          	nop
  203cb4:	00000013          	nop
  203cb8:	00000013          	nop
  203cbc:	00000013          	nop
  203cc0:	00000013          	nop
  203cc4:	00000013          	nop
  203cc8:	00000013          	nop
  203ccc:	00000013          	nop
  203cd0:	00000013          	nop
  203cd4:	00000013          	nop
  203cd8:	00000013          	nop
  203cdc:	00000013          	nop
  203ce0:	00000013          	nop
  203ce4:	00000013          	nop
  203ce8:	00000013          	nop
  203cec:	00000013          	nop
  203cf0:	00000013          	nop
  203cf4:	00000013          	nop
  203cf8:	00000013          	nop
  203cfc:	00000013          	nop
  203d00:	00000013          	nop
  203d04:	00000013          	nop
  203d08:	00000013          	nop
  203d0c:	00000013          	nop
  203d10:	00000013          	nop
  203d14:	00000013          	nop
  203d18:	00000013          	nop
  203d1c:	00000013          	nop
  203d20:	00000013          	nop
  203d24:	00000013          	nop
  203d28:	00000013          	nop
  203d2c:	00000013          	nop
  203d30:	00000013          	nop
  203d34:	00000013          	nop
  203d38:	00000013          	nop
  203d3c:	00000013          	nop
  203d40:	00000013          	nop
  203d44:	00000013          	nop
  203d48:	00000013          	nop
  203d4c:	00000013          	nop
  203d50:	00000013          	nop
  203d54:	00000013          	nop
  203d58:	00000013          	nop
  203d5c:	00000013          	nop
  203d60:	00000013          	nop
  203d64:	00000013          	nop
  203d68:	00000013          	nop
  203d6c:	00000013          	nop
  203d70:	00000013          	nop
  203d74:	00000013          	nop
  203d78:	00000013          	nop
  203d7c:	00000013          	nop
  203d80:	00000013          	nop
  203d84:	00000013          	nop
  203d88:	00000013          	nop
  203d8c:	00000013          	nop
  203d90:	00000013          	nop
  203d94:	00000013          	nop
  203d98:	00000013          	nop
  203d9c:	00000013          	nop
  203da0:	00000013          	nop
  203da4:	00000013          	nop
  203da8:	00000013          	nop
  203dac:	00000013          	nop
  203db0:	00000013          	nop
  203db4:	00000013          	nop
  203db8:	00000013          	nop
  203dbc:	00000013          	nop
  203dc0:	00000013          	nop
  203dc4:	00000013          	nop
  203dc8:	00000013          	nop
  203dcc:	00000013          	nop
  203dd0:	00000013          	nop
  203dd4:	00000013          	nop
  203dd8:	00000013          	nop
  203ddc:	00000013          	nop
  203de0:	00000013          	nop
  203de4:	00000013          	nop
  203de8:	00000013          	nop
  203dec:	00000013          	nop
  203df0:	00000013          	nop
  203df4:	00000013          	nop
  203df8:	00000013          	nop
  203dfc:	00000013          	nop
  203e00:	00000013          	nop
  203e04:	00000013          	nop
  203e08:	00000013          	nop
  203e0c:	00000013          	nop
  203e10:	00000013          	nop
  203e14:	00000013          	nop
  203e18:	00000013          	nop
  203e1c:	00000013          	nop
  203e20:	00000013          	nop
  203e24:	00000013          	nop
  203e28:	00000013          	nop
  203e2c:	00000013          	nop
  203e30:	00000013          	nop
  203e34:	00000013          	nop
  203e38:	00000013          	nop
  203e3c:	00000013          	nop
  203e40:	00000013          	nop
  203e44:	00000013          	nop
  203e48:	00000013          	nop
  203e4c:	00000013          	nop
  203e50:	00000013          	nop
  203e54:	00000013          	nop
  203e58:	00000013          	nop
  203e5c:	00000013          	nop
  203e60:	00000013          	nop
  203e64:	00000013          	nop
  203e68:	00000013          	nop
  203e6c:	00000013          	nop
  203e70:	00000013          	nop
  203e74:	00000013          	nop
  203e78:	00000013          	nop
  203e7c:	00000013          	nop
  203e80:	00000013          	nop
  203e84:	00000013          	nop
  203e88:	00000013          	nop
  203e8c:	00000013          	nop
  203e90:	00000013          	nop
  203e94:	00000013          	nop
  203e98:	00000013          	nop
  203e9c:	00000013          	nop
  203ea0:	00000013          	nop
  203ea4:	00000013          	nop
  203ea8:	00000013          	nop
  203eac:	00000013          	nop
  203eb0:	00000013          	nop
  203eb4:	00000013          	nop
  203eb8:	00000013          	nop
  203ebc:	00000013          	nop
  203ec0:	00000013          	nop
  203ec4:	00000013          	nop
  203ec8:	00000013          	nop
  203ecc:	00000013          	nop
  203ed0:	00000013          	nop
  203ed4:	00000013          	nop
  203ed8:	00000013          	nop
  203edc:	00000013          	nop
  203ee0:	00000013          	nop
  203ee4:	00000013          	nop
  203ee8:	00000013          	nop
  203eec:	00000013          	nop
  203ef0:	00000013          	nop
  203ef4:	00000013          	nop
  203ef8:	00000013          	nop
  203efc:	00000013          	nop
  203f00:	00000013          	nop
  203f04:	00000013          	nop
  203f08:	00000013          	nop
  203f0c:	00000013          	nop
  203f10:	00000013          	nop
  203f14:	00000013          	nop
  203f18:	00000013          	nop
  203f1c:	00000013          	nop
  203f20:	00000013          	nop
  203f24:	00000013          	nop
  203f28:	00000013          	nop
  203f2c:	00000013          	nop
  203f30:	00000013          	nop
  203f34:	00000013          	nop
  203f38:	00000013          	nop
  203f3c:	00000013          	nop
  203f40:	00000013          	nop
  203f44:	00000013          	nop
  203f48:	00000013          	nop
  203f4c:	00000013          	nop
  203f50:	00000013          	nop
  203f54:	00000013          	nop
  203f58:	00000013          	nop
  203f5c:	00000013          	nop
  203f60:	00000013          	nop
  203f64:	00000013          	nop
  203f68:	00000013          	nop
  203f6c:	00000013          	nop
  203f70:	00000013          	nop
  203f74:	00000013          	nop
  203f78:	00000013          	nop
  203f7c:	00000013          	nop
  203f80:	00000013          	nop
  203f84:	00000013          	nop
  203f88:	00000013          	nop
  203f8c:	00000013          	nop
  203f90:	00000013          	nop
  203f94:	00000013          	nop
  203f98:	00000013          	nop
  203f9c:	00000013          	nop
  203fa0:	00000013          	nop
  203fa4:	00000013          	nop
  203fa8:	00000013          	nop
  203fac:	00000013          	nop
  203fb0:	00000013          	nop
  203fb4:	00000013          	nop
  203fb8:	00000013          	nop
  203fbc:	00000013          	nop
  203fc0:	00000013          	nop
  203fc4:	00000013          	nop
  203fc8:	00000013          	nop
  203fcc:	00000013          	nop
  203fd0:	00000013          	nop
  203fd4:	00000013          	nop
  203fd8:	00000013          	nop
  203fdc:	00000013          	nop
  203fe0:	00000013          	nop
  203fe4:	00000013          	nop
  203fe8:	00000013          	nop
  203fec:	00000013          	nop
  203ff0:	00000013          	nop
  203ff4:	00000013          	nop
  203ff8:	00000013          	nop
  203ffc:	00000013          	nop

0000000000204000 <cake_codebuffer_end>:
	...

0000000000205000 <cml_enter>:
  205000:	1101                	addi	sp,sp,-32
  205002:	ec06                	sd	ra,24(sp)
  205004:	e86a                	sd	s10,16(sp)
  205006:	e466                	sd	s9,8(sp)
  205008:	e062                	sd	s8,0(sp)
  20500a:	8a6fc06f          	j	2010b0 <cml__Init_0>
  20500e:	0001                	nop

0000000000205010 <cake_enter>:
  205010:	1101                	addi	sp,sp,-32
  205012:	ec06                	sd	ra,24(sp)
  205014:	e86a                	sd	s10,16(sp)
  205016:	e466                	sd	s9,8(sp)
  205018:	e062                	sd	s8,0(sp)

000000000020501a <.Lpcrel_hi4>:
  20501a:	00004317          	auipc	t1,0x4
  20501e:	01630313          	addi	t1,t1,22 # 209030 <can_enter>
  205022:	00033383          	ld	t2,0(t1)
  205026:	06038d63          	beqz	t2,2050a0 <cake_err3>
  20502a:	00033023          	sd	zero,0(t1)

000000000020502e <.Lpcrel_hi5>:
  20502e:	00004317          	auipc	t1,0x4
  205032:	fea30313          	addi	t1,t1,-22 # 209018 <ret_base>
  205036:	00033d03          	ld	s10,0(t1)

000000000020503a <.Lpcrel_hi6>:
  20503a:	00004317          	auipc	t1,0x4
  20503e:	fe630313          	addi	t1,t1,-26 # 209020 <ret_stack>
  205042:	00033c03          	ld	s8,0(t1)

0000000000205046 <.Lpcrel_hi7>:
  205046:	00004317          	auipc	t1,0x4
  20504a:	fe230313          	addi	t1,t1,-30 # 209028 <ret_stackend>
  20504e:	00033c83          	ld	s9,0(t1)

0000000000205052 <.Lpcrel_hi8>:
  205052:	00000097          	auipc	ra,0x0
  205056:	03208093          	addi	ra,ra,50 # 205084 <cake_return>
  20505a:	8282                	jr	t0
  20505c:	00000013          	nop

0000000000205060 <cml_return>:
  205060:	00004317          	auipc	t1,0x4
  205064:	fb830313          	addi	t1,t1,-72 # 209018 <ret_base>
  205068:	01a33023          	sd	s10,0(t1)

000000000020506c <.Lpcrel_hi10>:
  20506c:	00004317          	auipc	t1,0x4
  205070:	fb430313          	addi	t1,t1,-76 # 209020 <ret_stack>
  205074:	01833023          	sd	s8,0(t1)

0000000000205078 <.Lpcrel_hi11>:
  205078:	00004317          	auipc	t1,0x4
  20507c:	fb030313          	addi	t1,t1,-80 # 209028 <ret_stackend>
  205080:	01933023          	sd	s9,0(t1)

0000000000205084 <cake_return>:
  205084:	00004317          	auipc	t1,0x4
  205088:	fac30313          	addi	t1,t1,-84 # 209030 <can_enter>
  20508c:	4385                	li	t2,1
  20508e:	00733023          	sd	t2,0(t1)
  205092:	6c02                	ld	s8,0(sp)
  205094:	6ca2                	ld	s9,8(sp)
  205096:	6d42                	ld	s10,16(sp)
  205098:	60e2                	ld	ra,24(sp)
  20509a:	6105                	addi	sp,sp,32
  20509c:	8082                	ret
  20509e:	0001                	nop

00000000002050a0 <cake_err3>:
  2050a0:	450d                	li	a0,3
  2050a2:	0280006f          	j	2050ca <cml_err>
  2050a6:	00000013          	nop
  2050aa:	00000013          	nop
  2050ae:	0001                	nop

00000000002050b0 <notified>:
  2050b0:	00000297          	auipc	t0,0x0
  2050b4:	00a28293          	addi	t0,t0,10 # 2050ba <notified_jmp>
  2050b8:	bfa1                	j	205010 <cake_enter>

00000000002050ba <notified_jmp>:
  2050ba:	fa6fe06f          	j	203860 <cml_notified_46>

00000000002050be <cml_exit>:
  2050be:	00209537          	lui	a0,0x209
  2050c2:	8fd50513          	addi	a0,a0,-1795 # 2088fd <_text_end+0x8a5>
  2050c6:	2a90206f          	j	207b6e <microkit_dbg_puts>

00000000002050ca <cml_err>:
  2050ca:	458d                	li	a1,3
  2050cc:	00b51c63          	bne	a0,a1,2050e4 <cml_err+0x1a>
  2050d0:	1141                	addi	sp,sp,-16
  2050d2:	e406                	sd	ra,8(sp)
  2050d4:	00209537          	lui	a0,0x209
  2050d8:	abb50513          	addi	a0,a0,-1349 # 208abb <_text_end+0xa63>
  2050dc:	293020ef          	jal	207b6e <microkit_dbg_puts>
  2050e0:	60a2                	ld	ra,8(sp)
  2050e2:	0141                	addi	sp,sp,16
  2050e4:	00209537          	lui	a0,0x209
  2050e8:	8fd50513          	addi	a0,a0,-1795 # 2088fd <_text_end+0x8a5>
  2050ec:	2830206f          	j	207b6e <microkit_dbg_puts>

00000000002050f0 <cml_clear>:
  2050f0:	00208537          	lui	a0,0x208
  2050f4:	0de50513          	addi	a0,a0,222 # 2080de <_text_end+0x86>
  2050f8:	2770206f          	j	207b6e <microkit_dbg_puts>

00000000002050fc <init_pancake_mem>:
  2050fc:	0020a537          	lui	a0,0x20a
  205100:	87050513          	addi	a0,a0,-1936 # 209870 <cml_memory>
  205104:	6589                	lui	a1,0x2
  205106:	00209637          	lui	a2,0x209
  20510a:	95aa                	add	a1,a1,a0
  20510c:	00b63423          	sd	a1,8(a2) # 209008 <cml_stack>
  205110:	002095b7          	lui	a1,0x209
  205114:	4615                	li	a2,5
  205116:	00a5b023          	sd	a0,0(a1) # 209000 <__init_array_end>
  20511a:	062e                	slli	a2,a2,0xb
  20511c:	9532                	add	a0,a0,a2
  20511e:	002095b7          	lui	a1,0x209
  205122:	00a5b823          	sd	a0,16(a1) # 209010 <cml_stackend>
  205126:	8082                	ret

0000000000205128 <ffirx_provide>:
  205128:	1101                	addi	sp,sp,-32
  20512a:	ec22                	sd	s0,24(sp)
  20512c:	e826                	sd	s1,16(sp)
  20512e:	e44a                	sd	s2,8(sp)
  205130:	e04e                	sd	s3,0(sp)
  205132:	0020c5b7          	lui	a1,0x20c
  205136:	07058593          	addi	a1,a1,112 # 20c070 <eth_regs>
  20513a:	6d88                	ld	a0,24(a1)
  20513c:	0085b303          	ld	t1,8(a1)
  205140:	6114                	ld	a3,0(a0)
  205142:	00853383          	ld	t2,8(a0)
  205146:	01053903          	ld	s2,16(a0)
  20514a:	00033983          	ld	s3,0(t1)
  20514e:	40768633          	sub	a2,a3,t2
  205152:	09260863          	beq	a2,s2,2051e2 <ffirx_provide+0xba>
  205156:	0009d803          	lhu	a6,0(s3)
  20515a:	0029d783          	lhu	a5,2(s3)
  20515e:	08f80263          	beq	a6,a5,2051e2 <ffirx_provide+0xba>
  205162:	00898893          	addi	a7,s3,8
  205166:	02050293          	addi	t0,a0,32
  20516a:	00469613          	slli	a2,a3,0x4
  20516e:	93ca                	add	t2,t2,s2
  205170:	c1000e37          	lui	t3,0xc1000
  205174:	0020ceb7          	lui	t4,0x20c
  205178:	070e8f13          	addi	t5,t4,112 # 20c070 <eth_regs>
  20517c:	6f85                	lui	t6,0x1
  20517e:	03079413          	slli	s0,a5,0x30
  205182:	9041                	srli	s0,s0,0x30
  205184:	04880f63          	beq	a6,s0,2051e2 <ffirx_provide+0xba>
  205188:	01032483          	lw	s1,16(t1)
  20518c:	0785                	addi	a5,a5,1
  20518e:	0326f733          	remu	a4,a3,s2
  205192:	6d0c                	ld	a1,24(a0)
  205194:	00f99123          	sh	a5,2(s3)
  205198:	1702                	slli	a4,a4,0x20
  20519a:	0294743b          	remuw	s0,s0,s1
  20519e:	01d75493          	srli	s1,a4,0x1d
  2051a2:	0412                	slli	s0,s0,0x4
  2051a4:	9446                	add	s0,s0,a7
  2051a6:	6000                	ld	s0,0(s0)
  2051a8:	8371                	srli	a4,a4,0x1c
  2051aa:	9496                	add	s1,s1,t0
  2051ac:	95ba                	add	a1,a1,a4
  2051ae:	e080                	sd	s0,0(s1)
  2051b0:	02045713          	srli	a4,s0,0x20
  2051b4:	c180                	sw	s0,0(a1)
  2051b6:	c1d8                	sw	a4,4(a1)
  2051b8:	0005a423          	sw	zero,8(a1)
  2051bc:	0310000f          	fence	rw,w
  2051c0:	01c5a623          	sw	t3,12(a1)
  2051c4:	0310000f          	fence	rw,w
  2051c8:	028f2583          	lw	a1,40(t5)
  2051cc:	070eb703          	ld	a4,112(t4)
  2051d0:	0685                	addi	a3,a3,1 # ffffffffffff2001 <__sel4_ipc_buffer_obj+0xffffffffffde4001>
  2051d2:	95b2                	add	a1,a1,a2
  2051d4:	977e                	add	a4,a4,t6
  2051d6:	12b72423          	sw	a1,296(a4)
  2051da:	e114                	sd	a3,0(a0)
  2051dc:	0641                	addi	a2,a2,16
  2051de:	fad390e3          	bne	t2,a3,20517e <ffirx_provide+0x56>
  2051e2:	0009a223          	sw	zero,4(s3)
  2051e6:	6462                	ld	s0,24(sp)
  2051e8:	64c2                	ld	s1,16(sp)
  2051ea:	6922                	ld	s2,8(sp)
  2051ec:	6982                	ld	s3,0(sp)
  2051ee:	6105                	addi	sp,sp,32
  2051f0:	8082                	ret

00000000002051f2 <ffirx_return>:
  2051f2:	a009                	j	2051f4 <rx_return>

00000000002051f4 <rx_return>:
  2051f4:	7159                	addi	sp,sp,-112
  2051f6:	f486                	sd	ra,104(sp)
  2051f8:	f0a2                	sd	s0,96(sp)
  2051fa:	eca6                	sd	s1,88(sp)
  2051fc:	e8ca                	sd	s2,80(sp)
  2051fe:	e4ce                	sd	s3,72(sp)
  205200:	e0d2                	sd	s4,64(sp)
  205202:	fc56                	sd	s5,56(sp)
  205204:	f85a                	sd	s6,48(sp)
  205206:	f45e                	sd	s7,40(sp)
  205208:	f062                	sd	s8,32(sp)
  20520a:	ec66                	sd	s9,24(sp)
  20520c:	e86a                	sd	s10,16(sp)
  20520e:	e46e                	sd	s11,8(sp)
  205210:	0020cdb7          	lui	s11,0x20c
  205214:	070d8d93          	addi	s11,s11,112 # 20c070 <eth_regs>
  205218:	018db503          	ld	a0,24(s11)
  20521c:	6110                	ld	a2,0(a0)
  20521e:	650c                	ld	a1,8(a0)
  205220:	12b60b63          	beq	a2,a1,205356 <rx_return+0x162>
  205224:	4901                	li	s2,0
  205226:	54fd                	li	s1,-1
  205228:	7ac1                	lui	s5,0xffff0
  20522a:	00208a37          	lui	s4,0x208
  20522e:	340a0a13          	addi	s4,s4,832 # 208340 <_text_end+0x2e8>
  205232:	00208b37          	lui	s6,0x208
  205236:	708b0b13          	addi	s6,s6,1800 # 208708 <_text_end+0x6b0>
  20523a:	0020cc37          	lui	s8,0x20c
  20523e:	c1000bb7          	lui	s7,0xc1000
  205242:	9081                	srli	s1,s1,0x20
  205244:	070c0c93          	addi	s9,s8,112 # 20c070 <eth_regs>
  205248:	6d05                	lui	s10,0x1
  20524a:	a085                	j	2052aa <rx_return+0xb6>
  20524c:	855a                	mv	a0,s6
  20524e:	23e010ef          	jal	20648c <sddf_printf_>
  205252:	018cb503          	ld	a0,24(s9)
  205256:	610c                	ld	a1,0(a0)
  205258:	6910                	ld	a2,16(a0)
  20525a:	6d14                	ld	a3,24(a0)
  20525c:	02c5f633          	remu	a2,a1,a2
  205260:	8e65                	and	a2,a2,s1
  205262:	00361713          	slli	a4,a2,0x3
  205266:	972a                	add	a4,a4,a0
  205268:	03373023          	sd	s3,32(a4)
  20526c:	0209d713          	srli	a4,s3,0x20
  205270:	0612                	slli	a2,a2,0x4
  205272:	96b2                	add	a3,a3,a2
  205274:	0136a023          	sw	s3,0(a3)
  205278:	c2d8                	sw	a4,4(a3)
  20527a:	0006a423          	sw	zero,8(a3)
  20527e:	0310000f          	fence	rw,w
  205282:	0176a623          	sw	s7,12(a3)
  205286:	028cb683          	ld	a3,40(s9)
  20528a:	070c3703          	ld	a4,112(s8)
  20528e:	0585                	addi	a1,a1,1
  205290:	9636                	add	a2,a2,a3
  205292:	976a                	add	a4,a4,s10
  205294:	12c72423          	sw	a2,296(a4)
  205298:	e10c                	sd	a1,0(a0)
  20529a:	018db503          	ld	a0,24(s11)
  20529e:	650c                	ld	a1,8(a0)
  2052a0:	6110                	ld	a2,0(a0)
  2052a2:	0585                	addi	a1,a1,1
  2052a4:	e50c                	sd	a1,8(a0)
  2052a6:	0ab60063          	beq	a2,a1,205346 <rx_return+0x152>
  2052aa:	6910                	ld	a2,16(a0)
  2052ac:	6d08                	ld	a0,24(a0)
  2052ae:	02c5f5b3          	remu	a1,a1,a2
  2052b2:	8de5                	and	a1,a1,s1
  2052b4:	00459613          	slli	a2,a1,0x4
  2052b8:	9532                	add	a0,a0,a2
  2052ba:	4550                	lw	a2,12(a0)
  2052bc:	08064563          	bltz	a2,205346 <rx_return+0x152>
  2052c0:	0230000f          	fence	r,rw
  2052c4:	018db603          	ld	a2,24(s11)
  2052c8:	058e                	slli	a1,a1,0x3
  2052ca:	95b2                	add	a1,a1,a2
  2052cc:	0205b983          	ld	s3,32(a1)
  2052d0:	00c56603          	lwu	a2,12(a0)
  2052d4:	454c                	lw	a1,12(a0)
  2052d6:	1642                	slli	a2,a2,0x30
  2052d8:	f6064ae3          	bltz	a2,20524c <rx_return+0x58>
  2052dc:	008db503          	ld	a0,8(s11)
  2052e0:	6510                	ld	a2,8(a0)
  2052e2:	4914                	lw	a3,16(a0)
  2052e4:	00065703          	lhu	a4,0(a2)
  2052e8:	00265783          	lhu	a5,2(a2)
  2052ec:	15c6                	slli	a1,a1,0x31
  2052ee:	91c5                	srli	a1,a1,0x31
  2052f0:	01547433          	and	s0,s0,s5
  2052f4:	40f707b3          	sub	a5,a4,a5
  2052f8:	8c4d                	or	s0,s0,a1
  2052fa:	02d79063          	bne	a5,a3,20531a <rx_return+0x126>
  2052fe:	17a00613          	li	a2,378
  205302:	00209537          	lui	a0,0x209
  205306:	ab650513          	addi	a0,a0,-1354 # 208ab6 <_text_end+0xa5e>
  20530a:	002085b7          	lui	a1,0x208
  20530e:	17c58593          	addi	a1,a1,380 # 20817c <_text_end+0x124>
  205312:	86d2                	mv	a3,s4
  205314:	5fa020ef          	jal	20790e <_assert_fail>
  205318:	a831                	j	205334 <rx_return+0x140>
  20531a:	02d775bb          	remuw	a1,a4,a3
  20531e:	0592                	slli	a1,a1,0x4
  205320:	95b2                	add	a1,a1,a2
  205322:	e980                	sd	s0,16(a1)
  205324:	6508                	ld	a0,8(a0)
  205326:	00051603          	lh	a2,0(a0)
  20532a:	0135b423          	sd	s3,8(a1)
  20532e:	0605                	addi	a2,a2,1
  205330:	00c51023          	sh	a2,0(a0)
  205334:	4905                	li	s2,1
  205336:	018db503          	ld	a0,24(s11)
  20533a:	650c                	ld	a1,8(a0)
  20533c:	6110                	ld	a2,0(a0)
  20533e:	0585                	addi	a1,a1,1
  205340:	e50c                	sd	a1,8(a0)
  205342:	f6b614e3          	bne	a2,a1,2052aa <rx_return+0xb6>
  205346:	00197513          	andi	a0,s2,1
  20534a:	c511                	beqz	a0,205356 <rx_return+0x162>
  20534c:	008db503          	ld	a0,8(s11)
  205350:	6508                	ld	a0,8(a0)
  205352:	414c                	lw	a1,4(a0)
  205354:	c185                	beqz	a1,205374 <rx_return+0x180>
  205356:	70a6                	ld	ra,104(sp)
  205358:	7406                	ld	s0,96(sp)
  20535a:	64e6                	ld	s1,88(sp)
  20535c:	6946                	ld	s2,80(sp)
  20535e:	69a6                	ld	s3,72(sp)
  205360:	6a06                	ld	s4,64(sp)
  205362:	7ae2                	ld	s5,56(sp)
  205364:	7b42                	ld	s6,48(sp)
  205366:	7ba2                	ld	s7,40(sp)
  205368:	7c02                	ld	s8,32(sp)
  20536a:	6ce2                	ld	s9,24(sp)
  20536c:	6d42                	ld	s10,16(sp)
  20536e:	6da2                	ld	s11,8(sp)
  205370:	6165                	addi	sp,sp,112
  205372:	8082                	ret
  205374:	002095b7          	lui	a1,0x209
  205378:	1ca5c403          	lbu	s0,458(a1) # 2091ca <config+0x2a>
  20537c:	4585                	li	a1,1
  20537e:	03d00613          	li	a2,61
  205382:	c14c                	sw	a1,4(a0)
  205384:	02866163          	bltu	a2,s0,2053a6 <rx_return+0x1b2>
  205388:	0020a537          	lui	a0,0x20a
  20538c:	84853503          	ld	a0,-1976(a0) # 209848 <microkit_notifications>
  205390:	00855533          	srl	a0,a0,s0
  205394:	8905                	andi	a0,a0,1
  205396:	c901                	beqz	a0,2053a6 <rx_return+0x1b2>
  205398:	00a40513          	addi	a0,s0,10
  20539c:	58ed                	li	a7,-5
  20539e:	4581                	li	a1,0
  2053a0:	00000073          	ecall
  2053a4:	bf4d                	j	205356 <rx_return+0x162>
  2053a6:	0020d537          	lui	a0,0x20d
  2053aa:	0b050513          	addi	a0,a0,176 # 20d0b0 <microkit_name>
  2053ae:	7c0020ef          	jal	207b6e <microkit_dbg_puts>
  2053b2:	00208537          	lui	a0,0x208
  2053b6:	1c050513          	addi	a0,a0,448 # 2081c0 <_text_end+0x168>
  2053ba:	7b4020ef          	jal	207b6e <microkit_dbg_puts>
  2053be:	8522                	mv	a0,s0
  2053c0:	04d020ef          	jal	207c0c <microkit_dbg_put32>
  2053c4:	00208537          	lui	a0,0x208
  2053c8:	52c50513          	addi	a0,a0,1324 # 20852c <_text_end+0x4d4>
  2053cc:	70a6                	ld	ra,104(sp)
  2053ce:	7406                	ld	s0,96(sp)
  2053d0:	64e6                	ld	s1,88(sp)
  2053d2:	6946                	ld	s2,80(sp)
  2053d4:	69a6                	ld	s3,72(sp)
  2053d6:	6a06                	ld	s4,64(sp)
  2053d8:	7ae2                	ld	s5,56(sp)
  2053da:	7b42                	ld	s6,48(sp)
  2053dc:	7ba2                	ld	s7,40(sp)
  2053de:	7c02                	ld	s8,32(sp)
  2053e0:	6ce2                	ld	s9,24(sp)
  2053e2:	6d42                	ld	s10,16(sp)
  2053e4:	6da2                	ld	s11,8(sp)
  2053e6:	6165                	addi	sp,sp,112
  2053e8:	7860206f          	j	207b6e <microkit_dbg_puts>

00000000002053ec <ffitx_provide>:
  2053ec:	a009                	j	2053ee <tx_provide>

00000000002053ee <tx_provide>:
  2053ee:	1101                	addi	sp,sp,-32
  2053f0:	ec22                	sd	s0,24(sp)
  2053f2:	e826                	sd	s1,16(sp)
  2053f4:	e44a                	sd	s2,8(sp)
  2053f6:	e04e                	sd	s3,0(sp)
  2053f8:	0020c537          	lui	a0,0x20c
  2053fc:	07050513          	addi	a0,a0,112 # 20c070 <eth_regs>
  205400:	02053f83          	ld	t6,32(a0)
  205404:	01053903          	ld	s2,16(a0)
  205408:	000fb603          	ld	a2,0(t6) # 1000 <.Ldebug_abbrev0+0x3d>
  20540c:	008fbf03          	ld	t5,8(t6)
  205410:	010fb983          	ld	s3,16(t6)
  205414:	00893683          	ld	a3,8(s2)
  205418:	41e60533          	sub	a0,a2,t5
  20541c:	0b350e63          	beq	a0,s3,2054d8 <tx_provide+0xea>
  205420:	0006d503          	lhu	a0,0(a3)
  205424:	0026d703          	lhu	a4,2(a3)
  205428:	0ae50863          	beq	a0,a4,2054d8 <tx_provide+0xea>
  20542c:	020f8813          	addi	a6,t6,32
  205430:	4885                	li	a7,1
  205432:	800002b7          	lui	t0,0x80000
  205436:	b0030337          	lui	t1,0xb0030
  20543a:	0020c3b7          	lui	t2,0x20c
  20543e:	07038e13          	addi	t3,t2,112 # 20c070 <eth_regs>
  205442:	6e85                	lui	t4,0x1
  205444:	a0a5                	j	2054ac <tx_provide+0xbe>
  205446:	01092403          	lw	s0,16(s2)
  20544a:	00150493          	addi	s1,a0,1
  20544e:	033675b3          	remu	a1,a2,s3
  205452:	018fb783          	ld	a5,24(t6)
  205456:	0605                	addi	a2,a2,1
  205458:	00971123          	sh	s1,2(a4)
  20545c:	1582                	slli	a1,a1,0x20
  20545e:	01d5d493          	srli	s1,a1,0x1d
  205462:	0285753b          	remuw	a0,a0,s0
  205466:	0512                	slli	a0,a0,0x4
  205468:	953a                	add	a0,a0,a4
  20546a:	6518                	ld	a4,8(a0)
  20546c:	01055503          	lhu	a0,16(a0)
  205470:	81f1                	srli	a1,a1,0x1c
  205472:	94c2                	add	s1,s1,a6
  205474:	97ae                	add	a5,a5,a1
  205476:	00556433          	or	s0,a0,t0
  20547a:	00656533          	or	a0,a0,t1
  20547e:	e098                	sd	a4,0(s1)
  205480:	02075493          	srli	s1,a4,0x20
  205484:	c398                	sw	a4,0(a5)
  205486:	c3c4                	sw	s1,4(a5)
  205488:	c780                	sw	s0,8(a5)
  20548a:	0310000f          	fence	rw,w
  20548e:	c7c8                	sw	a0,12(a5)
  205490:	00cfb023          	sd	a2,0(t6)
  205494:	030e3503          	ld	a0,48(t3) # ffffffffc1000030 <__sel4_ipc_buffer_obj+0xffffffffc0df2030>
  205498:	0703b703          	ld	a4,112(t2)
  20549c:	952e                	add	a0,a0,a1
  20549e:	9776                	add	a4,a4,t4
  2054a0:	12a72023          	sw	a0,288(a4)
  2054a4:	41e60533          	sub	a0,a2,t5
  2054a8:	03350863          	beq	a0,s3,2054d8 <tx_provide+0xea>
  2054ac:	00893703          	ld	a4,8(s2)
  2054b0:	00075403          	lhu	s0,0(a4)
  2054b4:	00275503          	lhu	a0,2(a4)
  2054b8:	f8a417e3          	bne	s0,a0,205446 <tx_provide+0x58>
  2054bc:	0006d503          	lhu	a0,0(a3)
  2054c0:	0026d583          	lhu	a1,2(a3)
  2054c4:	0006a223          	sw	zero,4(a3)
  2054c8:	00b50a63          	beq	a0,a1,2054dc <tx_provide+0xee>
  2054cc:	0116a223          	sw	a7,4(a3)
  2054d0:	41e60533          	sub	a0,a2,t5
  2054d4:	fd351ce3          	bne	a0,s3,2054ac <tx_provide+0xbe>
  2054d8:	0006a223          	sw	zero,4(a3)
  2054dc:	6462                	ld	s0,24(sp)
  2054de:	64c2                	ld	s1,16(sp)
  2054e0:	6922                	ld	s2,8(sp)
  2054e2:	6982                	ld	s3,0(sp)
  2054e4:	6105                	addi	sp,sp,32
  2054e6:	8082                	ret

00000000002054e8 <ffitx_return>:
  2054e8:	a009                	j	2054ea <tx_return>

00000000002054ea <tx_return>:
  2054ea:	7179                	addi	sp,sp,-48
  2054ec:	f406                	sd	ra,40(sp)
  2054ee:	f022                	sd	s0,32(sp)
  2054f0:	ec26                	sd	s1,24(sp)
  2054f2:	e84a                	sd	s2,16(sp)
  2054f4:	e44e                	sd	s3,8(sp)
  2054f6:	e052                	sd	s4,0(sp)
  2054f8:	0020c4b7          	lui	s1,0x20c
  2054fc:	07048493          	addi	s1,s1,112 # 20c070 <eth_regs>
  205500:	7088                	ld	a0,32(s1)
  205502:	6110                	ld	a2,0(a0)
  205504:	650c                	ld	a1,8(a0)
  205506:	12b60063          	beq	a2,a1,205626 <tx_return+0x13c>
  20550a:	6910                	ld	a2,16(a0)
  20550c:	6d08                	ld	a0,24(a0)
  20550e:	02c5f6b3          	remu	a3,a1,a2
  205512:	1682                	slli	a3,a3,0x20
  205514:	01c6d593          	srli	a1,a3,0x1c
  205518:	952e                	add	a0,a0,a1
  20551a:	4548                	lw	a0,12(a0)
  20551c:	10054563          	bltz	a0,205626 <tx_return+0x13c>
  205520:	0230000f          	fence	r,rw
  205524:	6888                	ld	a0,16(s1)
  205526:	610c                	ld	a1,0(a0)
  205528:	4918                	lw	a4,16(a0)
  20552a:	0005d603          	lhu	a2,0(a1)
  20552e:	0025d503          	lhu	a0,2(a1)
  205532:	40a60533          	sub	a0,a2,a0
  205536:	02e51a63          	bne	a0,a4,20556a <tx_return+0x80>
  20553a:	00209537          	lui	a0,0x209
  20553e:	ab650513          	addi	a0,a0,-1354 # 208ab6 <_text_end+0xa5e>
  205542:	002085b7          	lui	a1,0x208
  205546:	17c58593          	addi	a1,a1,380 # 20817c <_text_end+0x124>
  20554a:	002096b7          	lui	a3,0x209
  20554e:	8b568693          	addi	a3,a3,-1867 # 2088b5 <_text_end+0x85d>
  205552:	1bc00613          	li	a2,444
  205556:	3b8020ef          	jal	20790e <_assert_fail>
  20555a:	7088                	ld	a0,32(s1)
  20555c:	650c                	ld	a1,8(a0)
  20555e:	6110                	ld	a2,0(a0)
  205560:	0585                	addi	a1,a1,1
  205562:	e50c                	sd	a1,8(a0)
  205564:	02b61663          	bne	a2,a1,205590 <tx_return+0xa6>
  205568:	a85d                	j	20561e <tx_return+0x134>
  20556a:	7088                	ld	a0,32(s1)
  20556c:	9281                	srli	a3,a3,0x20
  20556e:	02e6773b          	remuw	a4,a2,a4
  205572:	068e                	slli	a3,a3,0x3
  205574:	96aa                	add	a3,a3,a0
  205576:	7294                	ld	a3,32(a3)
  205578:	0712                	slli	a4,a4,0x4
  20557a:	972e                	add	a4,a4,a1
  20557c:	0605                	addi	a2,a2,1
  20557e:	00c59023          	sh	a2,0(a1)
  205582:	e714                	sd	a3,8(a4)
  205584:	650c                	ld	a1,8(a0)
  205586:	6110                	ld	a2,0(a0)
  205588:	0585                	addi	a1,a1,1
  20558a:	e50c                	sd	a1,8(a0)
  20558c:	08b60963          	beq	a2,a1,20561e <tx_return+0x134>
  205590:	547d                	li	s0,-1
  205592:	00209937          	lui	s2,0x209
  205596:	ab690913          	addi	s2,s2,-1354 # 208ab6 <_text_end+0xa5e>
  20559a:	002089b7          	lui	s3,0x208
  20559e:	17c98993          	addi	s3,s3,380 # 20817c <_text_end+0x124>
  2055a2:	9001                	srli	s0,s0,0x20
  2055a4:	00209a37          	lui	s4,0x209
  2055a8:	8b5a0a13          	addi	s4,s4,-1867 # 2088b5 <_text_end+0x85d>
  2055ac:	a839                	j	2055ca <tx_return+0xe0>
  2055ae:	1bc00613          	li	a2,444
  2055b2:	854a                	mv	a0,s2
  2055b4:	85ce                	mv	a1,s3
  2055b6:	86d2                	mv	a3,s4
  2055b8:	356020ef          	jal	20790e <_assert_fail>
  2055bc:	7088                	ld	a0,32(s1)
  2055be:	650c                	ld	a1,8(a0)
  2055c0:	6110                	ld	a2,0(a0)
  2055c2:	0585                	addi	a1,a1,1
  2055c4:	e50c                	sd	a1,8(a0)
  2055c6:	04b60c63          	beq	a2,a1,20561e <tx_return+0x134>
  2055ca:	6910                	ld	a2,16(a0)
  2055cc:	6d08                	ld	a0,24(a0)
  2055ce:	02c5f633          	remu	a2,a1,a2
  2055d2:	8e61                	and	a2,a2,s0
  2055d4:	00461593          	slli	a1,a2,0x4
  2055d8:	952e                	add	a0,a0,a1
  2055da:	4548                	lw	a0,12(a0)
  2055dc:	04054163          	bltz	a0,20561e <tx_return+0x134>
  2055e0:	0230000f          	fence	r,rw
  2055e4:	6888                	ld	a0,16(s1)
  2055e6:	610c                	ld	a1,0(a0)
  2055e8:	4918                	lw	a4,16(a0)
  2055ea:	0005d683          	lhu	a3,0(a1)
  2055ee:	0025d503          	lhu	a0,2(a1)
  2055f2:	40a68533          	sub	a0,a3,a0
  2055f6:	fae50ce3          	beq	a0,a4,2055ae <tx_return+0xc4>
  2055fa:	7088                	ld	a0,32(s1)
  2055fc:	060e                	slli	a2,a2,0x3
  2055fe:	02e6f73b          	remuw	a4,a3,a4
  205602:	962a                	add	a2,a2,a0
  205604:	7210                	ld	a2,32(a2)
  205606:	0712                	slli	a4,a4,0x4
  205608:	972e                	add	a4,a4,a1
  20560a:	0685                	addi	a3,a3,1
  20560c:	00d59023          	sh	a3,0(a1)
  205610:	e710                	sd	a2,8(a4)
  205612:	650c                	ld	a1,8(a0)
  205614:	6110                	ld	a2,0(a0)
  205616:	0585                	addi	a1,a1,1
  205618:	e50c                	sd	a1,8(a0)
  20561a:	fab618e3          	bne	a2,a1,2055ca <tx_return+0xe0>
  20561e:	6888                	ld	a0,16(s1)
  205620:	6108                	ld	a0,0(a0)
  205622:	414c                	lw	a1,4(a0)
  205624:	c989                	beqz	a1,205636 <tx_return+0x14c>
  205626:	70a2                	ld	ra,40(sp)
  205628:	7402                	ld	s0,32(sp)
  20562a:	64e2                	ld	s1,24(sp)
  20562c:	6942                	ld	s2,16(sp)
  20562e:	69a2                	ld	s3,8(sp)
  205630:	6a02                	ld	s4,0(sp)
  205632:	6145                	addi	sp,sp,48
  205634:	8082                	ret
  205636:	002095b7          	lui	a1,0x209
  20563a:	1f25c403          	lbu	s0,498(a1) # 2091f2 <config+0x52>
  20563e:	4585                	li	a1,1
  205640:	03d00613          	li	a2,61
  205644:	c14c                	sw	a1,4(a0)
  205646:	02866163          	bltu	a2,s0,205668 <tx_return+0x17e>
  20564a:	0020a537          	lui	a0,0x20a
  20564e:	84853503          	ld	a0,-1976(a0) # 209848 <microkit_notifications>
  205652:	00855533          	srl	a0,a0,s0
  205656:	8905                	andi	a0,a0,1
  205658:	c901                	beqz	a0,205668 <tx_return+0x17e>
  20565a:	00a40513          	addi	a0,s0,10
  20565e:	58ed                	li	a7,-5
  205660:	4581                	li	a1,0
  205662:	00000073          	ecall
  205666:	b7c1                	j	205626 <tx_return+0x13c>
  205668:	0020d537          	lui	a0,0x20d
  20566c:	0b050513          	addi	a0,a0,176 # 20d0b0 <microkit_name>
  205670:	4fe020ef          	jal	207b6e <microkit_dbg_puts>
  205674:	00208537          	lui	a0,0x208
  205678:	1c050513          	addi	a0,a0,448 # 2081c0 <_text_end+0x168>
  20567c:	4f2020ef          	jal	207b6e <microkit_dbg_puts>
  205680:	8522                	mv	a0,s0
  205682:	58a020ef          	jal	207c0c <microkit_dbg_put32>
  205686:	00208537          	lui	a0,0x208
  20568a:	52c50513          	addi	a0,a0,1324 # 20852c <_text_end+0x4d4>
  20568e:	70a2                	ld	ra,40(sp)
  205690:	7402                	ld	s0,32(sp)
  205692:	64e2                	ld	s1,24(sp)
  205694:	6942                	ld	s2,16(sp)
  205696:	69a2                	ld	s3,8(sp)
  205698:	6a02                	ld	s4,0(sp)
  20569a:	6145                	addi	sp,sp,48
  20569c:	4d20206f          	j	207b6e <microkit_dbg_puts>

00000000002056a0 <ffihandle_irq>:
  2056a0:	7179                	addi	sp,sp,-48
  2056a2:	f406                	sd	ra,40(sp)
  2056a4:	f022                	sd	s0,32(sp)
  2056a6:	ec26                	sd	s1,24(sp)
  2056a8:	e84a                	sd	s2,16(sp)
  2056aa:	e44e                	sd	s3,8(sp)
  2056ac:	e052                	sd	s4,0(sp)
  2056ae:	0020c9b7          	lui	s3,0x20c
  2056b2:	0709b583          	ld	a1,112(s3) # 20c070 <eth_regs>
  2056b6:	6505                	lui	a0,0x1
  2056b8:	95aa                	add	a1,a1,a0
  2056ba:	1605e403          	lwu	s0,352(a1)
  2056be:	1605e603          	lwu	a2,352(a1)
  2056c2:	66b5                	lui	a3,0xd
  2056c4:	04168a1b          	addiw	s4,a3,65 # d041 <.Ldebug_info0+0x7dfc>
  2056c8:	8e61                	and	a2,a2,s0
  2056ca:	014476b3          	and	a3,s0,s4
  2056ce:	16c5a023          	sw	a2,352(a1)
  2056d2:	ceb1                	beqz	a3,20572e <ffihandle_irq+0x8e>
  2056d4:	1605049b          	addiw	s1,a0,352 # 1160 <.Ldebug_abbrev0+0x19d>
  2056d8:	00208937          	lui	s2,0x208
  2056dc:	37790913          	addi	s2,s2,887 # 208377 <_text_end+0x31f>
  2056e0:	a829                	j	2056fa <ffihandle_irq+0x5a>
  2056e2:	0709b503          	ld	a0,112(s3)
  2056e6:	9526                	add	a0,a0,s1
  2056e8:	00056403          	lwu	s0,0(a0)
  2056ec:	00056583          	lwu	a1,0(a0)
  2056f0:	01447633          	and	a2,s0,s4
  2056f4:	8de1                	and	a1,a1,s0
  2056f6:	c10c                	sw	a1,0(a0)
  2056f8:	ca1d                	beqz	a2,20572e <ffihandle_irq+0x8e>
  2056fa:	00147513          	andi	a0,s0,1
  2056fe:	e901                	bnez	a0,20570e <ffihandle_irq+0x6e>
  205700:	04047513          	andi	a0,s0,64
  205704:	ed01                	bnez	a0,20571c <ffihandle_irq+0x7c>
  205706:	144e                	slli	s0,s0,0x33
  205708:	fc045de3          	bgez	s0,2056e2 <ffihandle_irq+0x42>
  20570c:	a829                	j	205726 <ffihandle_irq+0x86>
  20570e:	dddff0ef          	jal	2054ea <tx_return>
  205712:	cddff0ef          	jal	2053ee <tx_provide>
  205716:	04047513          	andi	a0,s0,64
  20571a:	d575                	beqz	a0,205706 <ffihandle_irq+0x66>
  20571c:	ad9ff0ef          	jal	2051f4 <rx_return>
  205720:	144e                	slli	s0,s0,0x33
  205722:	fc0450e3          	bgez	s0,2056e2 <ffihandle_irq+0x42>
  205726:	854a                	mv	a0,s2
  205728:	565000ef          	jal	20648c <sddf_printf_>
  20572c:	bf5d                	j	2056e2 <ffihandle_irq+0x42>
  20572e:	70a2                	ld	ra,40(sp)
  205730:	7402                	ld	s0,32(sp)
  205732:	64e2                	ld	s1,24(sp)
  205734:	6942                	ld	s2,16(sp)
  205736:	69a2                	ld	s3,8(sp)
  205738:	6a02                	ld	s4,0(sp)
  20573a:	6145                	addi	sp,sp,48
  20573c:	8082                	ret

000000000020573e <init>:
  20573e:	7179                	addi	sp,sp,-48
  205740:	f406                	sd	ra,40(sp)
  205742:	f022                	sd	s0,32(sp)
  205744:	ec26                	sd	s1,24(sp)
  205746:	e84a                	sd	s2,16(sp)
  205748:	e44e                	sd	s3,8(sp)
  20574a:	00209537          	lui	a0,0x209
  20574e:	1a054583          	lbu	a1,416(a0) # 2091a0 <config>
  205752:	07300613          	li	a2,115
  205756:	02c59763          	bne	a1,a2,205784 <init+0x46>
  20575a:	1a154603          	lbu	a2,417(a0)
  20575e:	04400593          	li	a1,68
  205762:	02b61163          	bne	a2,a1,205784 <init+0x46>
  205766:	1a254603          	lbu	a2,418(a0)
  20576a:	00b61d63          	bne	a2,a1,205784 <init+0x46>
  20576e:	1a354583          	lbu	a1,419(a0)
  205772:	04600613          	li	a2,70
  205776:	00c59763          	bne	a1,a2,205784 <init+0x46>
  20577a:	1a454503          	lbu	a0,420(a0)
  20577e:	4595                	li	a1,5
  205780:	02b50263          	beq	a0,a1,2057a4 <init+0x66>
  205784:	00208537          	lui	a0,0x208
  205788:	39850513          	addi	a0,a0,920 # 208398 <_text_end+0x340>
  20578c:	002085b7          	lui	a1,0x208
  205790:	17c58593          	addi	a1,a1,380 # 20817c <_text_end+0x124>
  205794:	002096b7          	lui	a3,0x209
  205798:	82468693          	addi	a3,a3,-2012 # 208824 <_text_end+0x7cc>
  20579c:	2a900613          	li	a2,681
  2057a0:	16e020ef          	jal	20790e <_assert_fail>
  2057a4:	00209537          	lui	a0,0x209
  2057a8:	1f854583          	lbu	a1,504(a0) # 2091f8 <device_resources>
  2057ac:	07300613          	li	a2,115
  2057b0:	06c59663          	bne	a1,a2,20581c <init+0xde>
  2057b4:	1f954603          	lbu	a2,505(a0)
  2057b8:	04400593          	li	a1,68
  2057bc:	06b61063          	bne	a2,a1,20581c <init+0xde>
  2057c0:	1fa54603          	lbu	a2,506(a0)
  2057c4:	04b61c63          	bne	a2,a1,20581c <init+0xde>
  2057c8:	1fb54583          	lbu	a1,507(a0)
  2057cc:	04600613          	li	a2,70
  2057d0:	04c59663          	bne	a1,a2,20581c <init+0xde>
  2057d4:	1fc54503          	lbu	a0,508(a0)
  2057d8:	4585                	li	a1,1
  2057da:	04b51163          	bne	a0,a1,20581c <init+0xde>
  2057de:	00209437          	lui	s0,0x209
  2057e2:	1fe44503          	lbu	a0,510(s0) # 2091fe <device_resources+0x6>
  2057e6:	4585                	li	a1,1
  2057e8:	06b51163          	bne	a0,a1,20584a <init+0x10c>
  2057ec:	1fd44503          	lbu	a0,509(s0)
  2057f0:	458d                	li	a1,3
  2057f2:	08b51163          	bne	a0,a1,205874 <init+0x136>
  2057f6:	00209937          	lui	s2,0x209
  2057fa:	1f890913          	addi	s2,s2,504 # 2091f8 <device_resources>
  2057fe:	02893503          	ld	a0,40(s2)
  205802:	8131                	srli	a0,a0,0xc
  205804:	c145                	beqz	a0,2058a4 <init+0x166>
  205806:	04093503          	ld	a0,64(s2)
  20580a:	8131                	srli	a0,a0,0xc
  20580c:	c161                	beqz	a0,2058cc <init+0x18e>
  20580e:	60894403          	lbu	s0,1544(s2)
  205812:	03d00513          	li	a0,61
  205816:	0e857163          	bgeu	a0,s0,2058f8 <init+0x1ba>
  20581a:	a205                	j	20593a <init+0x1fc>
  20581c:	00209537          	lui	a0,0x209
  205820:	8bf50513          	addi	a0,a0,-1857 # 2088bf <_text_end+0x867>
  205824:	002085b7          	lui	a1,0x208
  205828:	17c58593          	addi	a1,a1,380 # 20817c <_text_end+0x124>
  20582c:	002096b7          	lui	a3,0x209
  205830:	82468693          	addi	a3,a3,-2012 # 208824 <_text_end+0x7cc>
  205834:	2aa00613          	li	a2,682
  205838:	0d6020ef          	jal	20790e <_assert_fail>
  20583c:	00209437          	lui	s0,0x209
  205840:	1fe44503          	lbu	a0,510(s0) # 2091fe <device_resources+0x6>
  205844:	4585                	li	a1,1
  205846:	fab503e3          	beq	a0,a1,2057ec <init+0xae>
  20584a:	00209537          	lui	a0,0x209
  20584e:	9c850513          	addi	a0,a0,-1592 # 2089c8 <_text_end+0x970>
  205852:	002085b7          	lui	a1,0x208
  205856:	17c58593          	addi	a1,a1,380 # 20817c <_text_end+0x124>
  20585a:	002096b7          	lui	a3,0x209
  20585e:	82468693          	addi	a3,a3,-2012 # 208824 <_text_end+0x7cc>
  205862:	2ab00613          	li	a2,683
  205866:	0a8020ef          	jal	20790e <_assert_fail>
  20586a:	1fd44503          	lbu	a0,509(s0)
  20586e:	458d                	li	a1,3
  205870:	f8b503e3          	beq	a0,a1,2057f6 <init+0xb8>
  205874:	00208537          	lui	a0,0x208
  205878:	13d50513          	addi	a0,a0,317 # 20813d <_text_end+0xe5>
  20587c:	002085b7          	lui	a1,0x208
  205880:	17c58593          	addi	a1,a1,380 # 20817c <_text_end+0x124>
  205884:	002096b7          	lui	a3,0x209
  205888:	82468693          	addi	a3,a3,-2012 # 208824 <_text_end+0x7cc>
  20588c:	2ac00613          	li	a2,684
  205890:	07e020ef          	jal	20790e <_assert_fail>
  205894:	00209937          	lui	s2,0x209
  205898:	1f890913          	addi	s2,s2,504 # 2091f8 <device_resources>
  20589c:	02893503          	ld	a0,40(s2)
  2058a0:	8131                	srli	a0,a0,0xc
  2058a2:	f135                	bnez	a0,205806 <init+0xc8>
  2058a4:	00209537          	lui	a0,0x209
  2058a8:	9e750513          	addi	a0,a0,-1561 # 2089e7 <_text_end+0x98f>
  2058ac:	002085b7          	lui	a1,0x208
  2058b0:	17c58593          	addi	a1,a1,380 # 20817c <_text_end+0x124>
  2058b4:	002096b7          	lui	a3,0x209
  2058b8:	82468693          	addi	a3,a3,-2012 # 208824 <_text_end+0x7cc>
  2058bc:	2ae00613          	li	a2,686
  2058c0:	04e020ef          	jal	20790e <_assert_fail>
  2058c4:	04093503          	ld	a0,64(s2)
  2058c8:	8131                	srli	a0,a0,0xc
  2058ca:	f131                	bnez	a0,20580e <init+0xd0>
  2058cc:	00208537          	lui	a0,0x208
  2058d0:	44250513          	addi	a0,a0,1090 # 208442 <_text_end+0x3ea>
  2058d4:	002085b7          	lui	a1,0x208
  2058d8:	17c58593          	addi	a1,a1,380 # 20817c <_text_end+0x124>
  2058dc:	002096b7          	lui	a3,0x209
  2058e0:	82468693          	addi	a3,a3,-2012 # 208824 <_text_end+0x7cc>
  2058e4:	2af00613          	li	a2,687
  2058e8:	026020ef          	jal	20790e <_assert_fail>
  2058ec:	60894403          	lbu	s0,1544(s2)
  2058f0:	03d00513          	li	a0,61
  2058f4:	04856363          	bltu	a0,s0,20593a <init+0x1fc>
  2058f8:	0020a537          	lui	a0,0x20a
  2058fc:	85053503          	ld	a0,-1968(a0) # 209850 <microkit_irqs>
  205900:	00855533          	srl	a0,a0,s0
  205904:	8905                	andi	a0,a0,1
  205906:	c915                	beqz	a0,20593a <init+0x1fc>
  205908:	4801                	li	a6,0
  20590a:	4601                	li	a2,0
  20590c:	4681                	li	a3,0
  20590e:	4701                	li	a4,0
  205910:	4781                	li	a5,0
  205912:	08a40513          	addi	a0,s0,138
  205916:	54fd                	li	s1,-1
  205918:	58fd                	li	a7,-1
  20591a:	65e9                	lui	a1,0x1a
  20591c:	1482                	slli	s1,s1,0x20
  20591e:	00000073          	ecall
  205922:	80d1                	srli	s1,s1,0x14
  205924:	8de5                	and	a1,a1,s1
  205926:	cd9d                	beqz	a1,205964 <init+0x226>
  205928:	00209537          	lui	a0,0x209
  20592c:	19853503          	ld	a0,408(a0) # 209198 <__sel4_ipc_buffer>
  205930:	e510                	sd	a2,8(a0)
  205932:	e914                	sd	a3,16(a0)
  205934:	ed18                	sd	a4,24(a0)
  205936:	f11c                	sd	a5,32(a0)
  205938:	a035                	j	205964 <init+0x226>
  20593a:	0020d537          	lui	a0,0x20d
  20593e:	0b050513          	addi	a0,a0,176 # 20d0b0 <microkit_name>
  205942:	22c020ef          	jal	207b6e <microkit_dbg_puts>
  205946:	00209537          	lui	a0,0x209
  20594a:	b5a50513          	addi	a0,a0,-1190 # 208b5a <_text_end+0xb02>
  20594e:	220020ef          	jal	207b6e <microkit_dbg_puts>
  205952:	8522                	mv	a0,s0
  205954:	2b8020ef          	jal	207c0c <microkit_dbg_put32>
  205958:	00208537          	lui	a0,0x208
  20595c:	52c50513          	addi	a0,a0,1324 # 20852c <_text_end+0x4d4>
  205960:	20e020ef          	jal	207b6e <microkit_dbg_puts>
  205964:	00893503          	ld	a0,8(s2)
  205968:	002095b7          	lui	a1,0x209
  20596c:	1905b583          	ld	a1,400(a1) # 209190 <resets>
  205970:	0020c637          	lui	a2,0x20c
  205974:	06a63823          	sd	a0,112(a2) # 20c070 <eth_regs>
  205978:	0385a003          	lw	zero,56(a1)
  20597c:	0385e683          	lwu	a3,56(a1)
  205980:	00209837          	lui	a6,0x209
  205984:	0020a7b7          	lui	a5,0x20a
  205988:	87078793          	addi	a5,a5,-1936 # 209870 <cml_memory>
  20598c:	9af9                	andi	a3,a3,-2
  20598e:	dd94                	sw	a3,56(a1)
  205990:	0385e683          	lwu	a3,56(a1)
  205994:	6409                	lui	s0,0x2
  205996:	002098b7          	lui	a7,0x209
  20599a:	4715                	li	a4,5
  20599c:	9af5                	andi	a3,a3,-3
  20599e:	dd94                	sw	a3,56(a1)
  2059a0:	002095b7          	lui	a1,0x209
  2059a4:	002099b7          	lui	s3,0x209
  2059a8:	1a098993          	addi	s3,s3,416 # 2091a0 <config>
  2059ac:	07060493          	addi	s1,a2,112
  2059b0:	943e                	add	s0,s0,a5
  2059b2:	072e                	slli	a4,a4,0xb
  2059b4:	00f83023          	sd	a5,0(a6) # 209000 <__init_array_end>
  2059b8:	02078613          	addi	a2,a5,32
  2059bc:	973e                	add	a4,a4,a5
  2059be:	0088b423          	sd	s0,8(a7) # 209008 <cml_stack>
  2059c2:	00e5b823          	sd	a4,16(a1) # 209010 <cml_stackend>
  2059c6:	60894583          	lbu	a1,1544(s2)
  2059ca:	02a9c683          	lbu	a3,42(s3)
  2059ce:	0529c703          	lbu	a4,82(s3)
  2059d2:	03878413          	addi	s0,a5,56
  2059d6:	e78c                	sd	a1,8(a5)
  2059d8:	eb94                	sd	a3,16(a5)
  2059da:	ef98                	sd	a4,24(a5)
  2059dc:	05078593          	addi	a1,a5,80
  2059e0:	7ff78693          	addi	a3,a5,2047
  2059e4:	07168693          	addi	a3,a3,113
  2059e8:	e490                	sd	a2,8(s1)
  2059ea:	e880                	sd	s0,16(s1)
  2059ec:	ec8c                	sd	a1,24(s1)
  2059ee:	f094                	sd	a3,32(s1)
  2059f0:	0f856403          	lwu	s0,248(a0)
  2059f4:	02c41513          	slli	a0,s0,0x2c
  2059f8:	02055063          	bgez	a0,205a18 <init+0x2da>
  2059fc:	00208537          	lui	a0,0x208
  205a00:	52f50513          	addi	a0,a0,1327 # 20852f <_text_end+0x4d7>
  205a04:	289000ef          	jal	20648c <sddf_printf_>
  205a08:	143e                	slli	s0,s0,0x2f
  205a0a:	02044063          	bltz	s0,205a2a <init+0x2ec>
  205a0e:	00208537          	lui	a0,0x208
  205a12:	34a50513          	addi	a0,a0,842 # 20834a <_text_end+0x2f2>
  205a16:	a831                	j	205a32 <init+0x2f4>
  205a18:	00209537          	lui	a0,0x209
  205a1c:	a3d50513          	addi	a0,a0,-1475 # 208a3d <_text_end+0x9e5>
  205a20:	26d000ef          	jal	20648c <sddf_printf_>
  205a24:	143e                	slli	s0,s0,0x2f
  205a26:	fe0454e3          	bgez	s0,205a0e <init+0x2d0>
  205a2a:	00208537          	lui	a0,0x208
  205a2e:	49250513          	addi	a0,a0,1170 # 208492 <_text_end+0x43a>
  205a32:	25b000ef          	jal	20648c <sddf_printf_>
  205a36:	6488                	ld	a0,8(s1)
  205a38:	688c                	ld	a1,16(s1)
  205a3a:	0089b803          	ld	a6,8(s3)
  205a3e:	0189b683          	ld	a3,24(s3)
  205a42:	0289d703          	lhu	a4,40(s3)
  205a46:	0309b783          	ld	a5,48(s3)
  205a4a:	0409b483          	ld	s1,64(s3)
  205a4e:	0509d403          	lhu	s0,80(s3)
  205a52:	03496603          	lwu	a2,52(s2)
  205a56:	01053023          	sd	a6,0(a0)
  205a5a:	e514                	sd	a3,8(a0)
  205a5c:	c918                	sw	a4,16(a0)
  205a5e:	e19c                	sd	a5,0(a1)
  205a60:	e584                	sd	s1,8(a1)
  205a62:	c980                	sw	s0,16(a1)
  205a64:	c20d                	beqz	a2,205a86 <init+0x348>
  205a66:	00209537          	lui	a0,0x209
  205a6a:	96450513          	addi	a0,a0,-1692 # 208964 <_text_end+0x90c>
  205a6e:	002085b7          	lui	a1,0x208
  205a72:	17c58593          	addi	a1,a1,380 # 20817c <_text_end+0x124>
  205a76:	002096b7          	lui	a3,0x209
  205a7a:	cb768693          	addi	a3,a3,-841 # 208cb7 <_text_end+0xc5f>
  205a7e:	29800613          	li	a2,664
  205a82:	68d010ef          	jal	20790e <_assert_fail>
  205a86:	0020c537          	lui	a0,0x20c
  205a8a:	07050593          	addi	a1,a0,112 # 20c070 <eth_regs>
  205a8e:	6d90                	ld	a2,24(a1)
  205a90:	02093683          	ld	a3,32(s2)
  205a94:	03893703          	ld	a4,56(s2)
  205a98:	ee14                	sd	a3,24(a2)
  205a9a:	10000693          	li	a3,256
  205a9e:	718c                	ld	a1,32(a1)
  205aa0:	ea14                	sd	a3,16(a2)
  205aa2:	07053503          	ld	a0,112(a0)
  205aa6:	6605                	lui	a2,0x1
  205aa8:	e994                	sd	a3,16(a1)
  205aaa:	ed98                	sd	a4,24(a1)
  205aac:	00c505b3          	add	a1,a0,a2
  205ab0:	4190                	lw	a2,0(a1)
  205ab2:	00166613          	ori	a2,a2,1
  205ab6:	c190                	sw	a2,0(a1)
  205ab8:	0005e603          	lwu	a2,0(a1)
  205abc:	8a05                	andi	a2,a2,1
  205abe:	fe6d                	bnez	a2,205ab8 <init+0x37a>
  205ac0:	6805                	lui	a6,0x1
  205ac2:	1048029b          	addiw	t0,a6,260 # 1104 <.Ldebug_abbrev0+0x141>
  205ac6:	005506b3          	add	a3,a0,t0
  205aca:	bfc6a703          	lw	a4,-1028(a3)
  205ace:	57e1                	li	a5,-8
  205ad0:	00a76713          	ori	a4,a4,10
  205ad4:	bee6ae23          	sw	a4,-1028(a3)
  205ad8:	c2c6a483          	lw	s1,-980(a3)
  205adc:	ffe10437          	lui	s0,0xffe10
  205ae0:	68a1                	lui	a7,0x8
  205ae2:	7641                	lui	a2,0xffff0
  205ae4:	0204e493          	ori	s1,s1,32
  205ae8:	c296a623          	sw	s1,-980(a3)
  205aec:	b2c6a003          	lw	zero,-1236(a3)
  205af0:	b2f6a623          	sw	a5,-1236(a3)
  205af4:	12056583          	lwu	a1,288(a0)
  205af8:	bfc6e483          	lwu	s1,-1028(a3)
  205afc:	fe100737          	lui	a4,0xfe100
  205b00:	147d                	addi	s0,s0,-1 # ffffffffffe0ffff <__sel4_ipc_buffer_obj+0xffffffffffc01fff>
  205b02:	0065d793          	srli	a5,a1,0x6
  205b06:	8c65                	and	s0,s0,s1
  205b08:	be86ae23          	sw	s0,-1028(a3)
  205b0c:	bfc6a483          	lw	s1,-1028(a3)
  205b10:	00f897bb          	sllw	a5,a7,a5
  205b14:	8ff1                	and	a5,a5,a2
  205b16:	963e                	add	a2,a2,a5
  205b18:	8e45                	or	a2,a2,s1
  205b1a:	bec6ae23          	sw	a2,-1028(a3)
  205b1e:	c2c6e603          	lwu	a2,-980(a3)
  205b22:	000807b7          	lui	a5,0x80
  205b26:	fff004b7          	lui	s1,0xfff00
  205b2a:	177d                	addi	a4,a4,-1 # fffffffffe0fffff <__sel4_ipc_buffer_obj+0xfffffffffdef1fff>
  205b2c:	8e79                	and	a2,a2,a4
  205b2e:	c2c6a623          	sw	a2,-980(a3)
  205b32:	c2c6a603          	lw	a2,-980(a3)
  205b36:	00b795bb          	sllw	a1,a5,a1
  205b3a:	8de5                	and	a1,a1,s1
  205b3c:	95a6                	add	a1,a1,s1
  205b3e:	8dd1                	or	a1,a1,a2
  205b40:	c2b6a623          	sw	a1,-980(a3)
  205b44:	0a056583          	lwu	a1,160(a0)
  205b48:	4605                	li	a2,1
  205b4a:	f7ff2737          	lui	a4,0xf7ff2
  205b4e:	898d                	andi	a1,a1,3
  205b50:	0ab52023          	sw	a1,160(a0)
  205b54:	0a052583          	lw	a1,160(a0)
  205b58:	080027b7          	lui	a5,0x8002
  205b5c:	6499                	lui	s1,0x6
  205b5e:	0039d437          	lui	s0,0x39d
  205b62:	0025e593          	ori	a1,a1,2
  205b66:	0ab52023          	sw	a1,160(a0)
  205b6a:	c510                	sw	a2,8(a0)
  205b6c:	06052823          	sw	zero,112(a0)
  205b70:	00056583          	lwu	a1,0(a0)
  205b74:	177d                	addi	a4,a4,-1 # fffffffff7ff1fff <__sel4_ipc_buffer_obj+0xfffffffff7de3fff>
  205b76:	b7548613          	addi	a2,s1,-1163 # 5b75 <.Ldebug_info0+0x930>
  205b7a:	f6c40493          	addi	s1,s0,-148 # 39cf6c <__sel4_ipc_buffer_obj+0x18ef6c>
  205b7e:	8df9                	and	a1,a1,a4
  205b80:	8ddd                	or	a1,a1,a5
  205b82:	c10c                	sw	a1,0(a0)
  205b84:	30c52023          	sw	a2,768(a0)
  205b88:	30952223          	sw	s1,772(a0)
  205b8c:	428c                	lw	a1,0(a3)
  205b8e:	00428793          	addi	a5,t0,4 # ffffffff80000004 <__sel4_ipc_buffer_obj+0xffffffff7fdf2004>
  205b92:	00f50633          	add	a2,a0,a5
  205b96:	0105e593          	ori	a1,a1,16
  205b9a:	c28c                	sw	a1,0(a3)
  205b9c:	00066583          	lwu	a1,0(a2) # ffffffffffff0000 <__sel4_ipc_buffer_obj+0xffffffffffde2000>
  205ba0:	7761                	lui	a4,0xffff8
  205ba2:	448d                	li	s1,3
  205ba4:	0705                	addi	a4,a4,1 # ffffffffffff8001 <__sel4_ipc_buffer_obj+0xffffffffffdea001>
  205ba6:	8df9                	and	a1,a1,a4
  205ba8:	c20c                	sw	a1,0(a2)
  205baa:	420c                	lw	a1,0(a2)
  205bac:	0ff00713          	li	a4,255
  205bb0:	0020c337          	lui	t1,0x20c
  205bb4:	04aa                	slli	s1,s1,0xa
  205bb6:	8dc5                	or	a1,a1,s1
  205bb8:	c20c                	sw	a1,0(a2)
  205bba:	002095b7          	lui	a1,0x209
  205bbe:	07030613          	addi	a2,t1,112 # 20c070 <eth_regs>
  205bc2:	d698                	sw	a4,40(a3)
  205bc4:	d6d8                	sw	a4,44(a3)
  205bc6:	03093683          	ld	a3,48(s2)
  205bca:	04893703          	ld	a4,72(s2)
  205bce:	0005b583          	ld	a1,0(a1) # 209000 <__init_array_end>
  205bd2:	0908041b          	addiw	s0,a6,144
  205bd6:	f614                	sd	a3,40(a2)
  205bd8:	fa18                	sd	a4,48(a2)
  205bda:	942e                	add	s0,s0,a1
  205bdc:	e188                	sd	a0,0(a1)
  205bde:	e014                	sd	a3,0(s0)
  205be0:	e418                	sd	a4,8(s0)
  205be2:	07033503          	ld	a0,112(t1)
  205be6:	560c                	lw	a1,40(a2)
  205be8:	92aa                	add	t0,t0,a0
  205bea:	00b2ac23          	sw	a1,24(t0)
  205bee:	7a10                	ld	a2,48(a2)
  205bf0:	04188693          	addi	a3,a7,65 # 8041 <.Ldebug_info0+0x2dfc>
  205bf4:	00c2a823          	sw	a2,16(t0)
  205bf8:	02d2a823          	sw	a3,48(t0)
  205bfc:	0002a603          	lw	a2,0(t0)
  205c00:	97aa                	add	a5,a5,a0
  205c02:	00166613          	ori	a2,a2,1
  205c06:	00c2a023          	sw	a2,0(t0)
  205c0a:	4390                	lw	a2,0(a5)
  205c0c:	00166613          	ori	a2,a2,1
  205c10:	c390                	sw	a2,0(a5)
  205c12:	4110                	lw	a2,0(a0)
  205c14:	95a6                	add	a1,a1,s1
  205c16:	3f058593          	addi	a1,a1,1008
  205c1a:	00366613          	ori	a2,a2,3
  205c1e:	c110                	sw	a2,0(a0)
  205c20:	02b2a223          	sw	a1,36(t0)
  205c24:	60894403          	lbu	s0,1544(s2)
  205c28:	03d00513          	li	a0,61
  205c2c:	04856363          	bltu	a0,s0,205c72 <init+0x534>
  205c30:	0020a537          	lui	a0,0x20a
  205c34:	85053503          	ld	a0,-1968(a0) # 209850 <microkit_irqs>
  205c38:	00855533          	srl	a0,a0,s0
  205c3c:	8905                	andi	a0,a0,1
  205c3e:	c915                	beqz	a0,205c72 <init+0x534>
  205c40:	4801                	li	a6,0
  205c42:	4601                	li	a2,0
  205c44:	4681                	li	a3,0
  205c46:	4701                	li	a4,0
  205c48:	4781                	li	a5,0
  205c4a:	08a40513          	addi	a0,s0,138
  205c4e:	54fd                	li	s1,-1
  205c50:	58fd                	li	a7,-1
  205c52:	65e9                	lui	a1,0x1a
  205c54:	1482                	slli	s1,s1,0x20
  205c56:	00000073          	ecall
  205c5a:	80d1                	srli	s1,s1,0x14
  205c5c:	8de5                	and	a1,a1,s1
  205c5e:	cd9d                	beqz	a1,205c9c <init+0x55e>
  205c60:	00209537          	lui	a0,0x209
  205c64:	19853503          	ld	a0,408(a0) # 209198 <__sel4_ipc_buffer>
  205c68:	e510                	sd	a2,8(a0)
  205c6a:	e914                	sd	a3,16(a0)
  205c6c:	ed18                	sd	a4,24(a0)
  205c6e:	f11c                	sd	a5,32(a0)
  205c70:	a035                	j	205c9c <init+0x55e>
  205c72:	0020d537          	lui	a0,0x20d
  205c76:	0b050513          	addi	a0,a0,176 # 20d0b0 <microkit_name>
  205c7a:	6f5010ef          	jal	207b6e <microkit_dbg_puts>
  205c7e:	00209537          	lui	a0,0x209
  205c82:	b5a50513          	addi	a0,a0,-1190 # 208b5a <_text_end+0xb02>
  205c86:	6e9010ef          	jal	207b6e <microkit_dbg_puts>
  205c8a:	8522                	mv	a0,s0
  205c8c:	781010ef          	jal	207c0c <microkit_dbg_put32>
  205c90:	00208537          	lui	a0,0x208
  205c94:	52c50513          	addi	a0,a0,1324 # 20852c <_text_end+0x4d4>
  205c98:	6d7010ef          	jal	207b6e <microkit_dbg_puts>
  205c9c:	70a2                	ld	ra,40(sp)
  205c9e:	7402                	ld	s0,32(sp)
  205ca0:	64e2                	ld	s1,24(sp)
  205ca2:	6942                	ld	s2,16(sp)
  205ca4:	69a2                	ld	s3,8(sp)
  205ca6:	6145                	addi	sp,sp,48
  205ca8:	b58fb06f          	j	201000 <cml_main>

0000000000205cac <ffidump_pnk_mem_slots>:
  205cac:	7139                	addi	sp,sp,-64
  205cae:	fc06                	sd	ra,56(sp)
  205cb0:	f822                	sd	s0,48(sp)
  205cb2:	f426                	sd	s1,40(sp)
  205cb4:	f04a                	sd	s2,32(sp)
  205cb6:	ec4e                	sd	s3,24(sp)
  205cb8:	e852                	sd	s4,16(sp)
  205cba:	e456                	sd	s5,8(sp)
  205cbc:	00209537          	lui	a0,0x209
  205cc0:	00053403          	ld	s0,0(a0) # 209000 <__init_array_end>
  205cc4:	6505                	lui	a0,0x1
  205cc6:	0905091b          	addiw	s2,a0,144 # 1090 <.Ldebug_abbrev0+0xcd>
  205cca:	9922                	add	s2,s2,s0
  205ccc:	7ff40513          	addi	a0,s0,2047
  205cd0:	07150a93          	addi	s5,a0,113
  205cd4:	00209537          	lui	a0,0x209
  205cd8:	b8550513          	addi	a0,a0,-1147 # 208b85 <_text_end+0xb2d>
  205cdc:	7b0000ef          	jal	20648c <sddf_printf_>
  205ce0:	00208537          	lui	a0,0x208
  205ce4:	3c450513          	addi	a0,a0,964 # 2083c4 <_text_end+0x36c>
  205ce8:	7a4000ef          	jal	20648c <sddf_printf_>
  205cec:	00208537          	lui	a0,0x208
  205cf0:	54d50513          	addi	a0,a0,1357 # 20854d <_text_end+0x4f5>
  205cf4:	798000ef          	jal	20648c <sddf_printf_>
  205cf8:	00209537          	lui	a0,0x209
  205cfc:	b2a50513          	addi	a0,a0,-1238 # 208b2a <_text_end+0xad2>
  205d00:	002095b7          	lui	a1,0x209
  205d04:	a5b58593          	addi	a1,a1,-1445 # 208a5b <_text_end+0xa03>
  205d08:	00209637          	lui	a2,0x209
  205d0c:	8ef60613          	addi	a2,a2,-1809 # 2088ef <_text_end+0x897>
  205d10:	002096b7          	lui	a3,0x209
  205d14:	92368693          	addi	a3,a3,-1757 # 208923 <_text_end+0x8cb>
  205d18:	00209737          	lui	a4,0x209
  205d1c:	85270713          	addi	a4,a4,-1966 # 208852 <_text_end+0x7fa>
  205d20:	002097b7          	lui	a5,0x209
  205d24:	95878793          	addi	a5,a5,-1704 # 208958 <_text_end+0x900>
  205d28:	764000ef          	jal	20648c <sddf_printf_>
  205d2c:	002089b7          	lui	s3,0x208
  205d30:	26698993          	addi	s3,s3,614 # 208266 <_text_end+0x20e>
  205d34:	854e                	mv	a0,s3
  205d36:	756000ef          	jal	20648c <sddf_printf_>
  205d3a:	6014                	ld	a3,0(s0)
  205d3c:	00209a37          	lui	s4,0x209
  205d40:	85aa0a13          	addi	s4,s4,-1958 # 20885a <_text_end+0x802>
  205d44:	002097b7          	lui	a5,0x209
  205d48:	a6078793          	addi	a5,a5,-1440 # 208a60 <_text_end+0xa08>
  205d4c:	8552                	mv	a0,s4
  205d4e:	4581                	li	a1,0
  205d50:	8622                	mv	a2,s0
  205d52:	8736                	mv	a4,a3
  205d54:	738000ef          	jal	20648c <sddf_printf_>
  205d58:	6414                	ld	a3,8(s0)
  205d5a:	00840613          	addi	a2,s0,8
  205d5e:	002087b7          	lui	a5,0x208
  205d62:	79778793          	addi	a5,a5,1943 # 208797 <_text_end+0x73f>
  205d66:	4585                	li	a1,1
  205d68:	8552                	mv	a0,s4
  205d6a:	8736                	mv	a4,a3
  205d6c:	720000ef          	jal	20648c <sddf_printf_>
  205d70:	6814                	ld	a3,16(s0)
  205d72:	01040613          	addi	a2,s0,16
  205d76:	002097b7          	lui	a5,0x209
  205d7a:	8f778793          	addi	a5,a5,-1801 # 2088f7 <_text_end+0x89f>
  205d7e:	4589                	li	a1,2
  205d80:	8552                	mv	a0,s4
  205d82:	8736                	mv	a4,a3
  205d84:	708000ef          	jal	20648c <sddf_printf_>
  205d88:	6c14                	ld	a3,24(s0)
  205d8a:	01840613          	addi	a2,s0,24
  205d8e:	002097b7          	lui	a5,0x209
  205d92:	a3778793          	addi	a5,a5,-1481 # 208a37 <_text_end+0x9df>
  205d96:	458d                	li	a1,3
  205d98:	8552                	mv	a0,s4
  205d9a:	8736                	mv	a4,a3
  205d9c:	6f0000ef          	jal	20648c <sddf_printf_>
  205da0:	7014                	ld	a3,32(s0)
  205da2:	02040613          	addi	a2,s0,32
  205da6:	002097b7          	lui	a5,0x209
  205daa:	b4e78793          	addi	a5,a5,-1202 # 208b4e <_text_end+0xaf6>
  205dae:	4591                	li	a1,4
  205db0:	8552                	mv	a0,s4
  205db2:	8736                	mv	a4,a3
  205db4:	6d8000ef          	jal	20648c <sddf_printf_>
  205db8:	7414                	ld	a3,40(s0)
  205dba:	02840613          	addi	a2,s0,40
  205dbe:	002097b7          	lui	a5,0x209
  205dc2:	a6978793          	addi	a5,a5,-1431 # 208a69 <_text_end+0xa11>
  205dc6:	4595                	li	a1,5
  205dc8:	8552                	mv	a0,s4
  205dca:	8736                	mv	a4,a3
  205dcc:	6c0000ef          	jal	20648c <sddf_printf_>
  205dd0:	7814                	ld	a3,48(s0)
  205dd2:	03040613          	addi	a2,s0,48
  205dd6:	002087b7          	lui	a5,0x208
  205dda:	66778793          	addi	a5,a5,1639 # 208667 <_text_end+0x60f>
  205dde:	4599                	li	a1,6
  205de0:	8552                	mv	a0,s4
  205de2:	8736                	mv	a4,a3
  205de4:	6a8000ef          	jal	20648c <sddf_printf_>
  205de8:	854e                	mv	a0,s3
  205dea:	6a2000ef          	jal	20648c <sddf_printf_>
  205dee:	7c14                	ld	a3,56(s0)
  205df0:	03840613          	addi	a2,s0,56
  205df4:	002097b7          	lui	a5,0x209
  205df8:	cca78793          	addi	a5,a5,-822 # 208cca <_text_end+0xc72>
  205dfc:	459d                	li	a1,7
  205dfe:	8552                	mv	a0,s4
  205e00:	8736                	mv	a4,a3
  205e02:	68a000ef          	jal	20648c <sddf_printf_>
  205e06:	6034                	ld	a3,64(s0)
  205e08:	04040613          	addi	a2,s0,64
  205e0c:	002097b7          	lui	a5,0x209
  205e10:	8a778793          	addi	a5,a5,-1881 # 2088a7 <_text_end+0x84f>
  205e14:	45a1                	li	a1,8
  205e16:	8552                	mv	a0,s4
  205e18:	8736                	mv	a4,a3
  205e1a:	672000ef          	jal	20648c <sddf_printf_>
  205e1e:	6434                	ld	a3,72(s0)
  205e20:	04840613          	addi	a2,s0,72
  205e24:	002097b7          	lui	a5,0x209
  205e28:	cd678793          	addi	a5,a5,-810 # 208cd6 <_text_end+0xc7e>
  205e2c:	45a5                	li	a1,9
  205e2e:	8552                	mv	a0,s4
  205e30:	8736                	mv	a4,a3
  205e32:	65a000ef          	jal	20648c <sddf_printf_>
  205e36:	854e                	mv	a0,s3
  205e38:	654000ef          	jal	20648c <sddf_printf_>
  205e3c:	00208537          	lui	a0,0x208
  205e40:	4bf50513          	addi	a0,a0,1215 # 2084bf <_text_end+0x467>
  205e44:	648000ef          	jal	20648c <sddf_printf_>
  205e48:	05040413          	addi	s0,s0,80
  205e4c:	44a9                	li	s1,10
  205e4e:	002099b7          	lui	s3,0x209
  205e52:	a7798993          	addi	s3,s3,-1417 # 208a77 <_text_end+0xa1f>
  205e56:	10e00a13          	li	s4,270
  205e5a:	6014                	ld	a3,0(s0)
  205e5c:	854e                	mv	a0,s3
  205e5e:	85a6                	mv	a1,s1
  205e60:	8622                	mv	a2,s0
  205e62:	8736                	mv	a4,a3
  205e64:	628000ef          	jal	20648c <sddf_printf_>
  205e68:	2485                	addiw	s1,s1,1
  205e6a:	0421                	addi	s0,s0,8
  205e6c:	ff4497e3          	bne	s1,s4,205e5a <ffidump_pnk_mem_slots+0x1ae>
  205e70:	00208537          	lui	a0,0x208
  205e74:	26650513          	addi	a0,a0,614 # 208266 <_text_end+0x20e>
  205e78:	614000ef          	jal	20648c <sddf_printf_>
  205e7c:	00209537          	lui	a0,0x209
  205e80:	d3f50513          	addi	a0,a0,-705 # 208d3f <_text_end+0xce7>
  205e84:	608000ef          	jal	20648c <sddf_printf_>
  205e88:	10e00413          	li	s0,270
  205e8c:	002099b7          	lui	s3,0x209
  205e90:	a7798993          	addi	s3,s3,-1417 # 208a77 <_text_end+0xa1f>
  205e94:	21200493          	li	s1,530
  205e98:	000ab683          	ld	a3,0(s5) # ffffffffffff0000 <__sel4_ipc_buffer_obj+0xffffffffffde2000>
  205e9c:	854e                	mv	a0,s3
  205e9e:	85a2                	mv	a1,s0
  205ea0:	8656                	mv	a2,s5
  205ea2:	8736                	mv	a4,a3
  205ea4:	5e8000ef          	jal	20648c <sddf_printf_>
  205ea8:	2405                	addiw	s0,s0,1
  205eaa:	0aa1                	addi	s5,s5,8
  205eac:	fe9416e3          	bne	s0,s1,205e98 <ffidump_pnk_mem_slots+0x1ec>
  205eb0:	00208437          	lui	s0,0x208
  205eb4:	26640413          	addi	s0,s0,614 # 208266 <_text_end+0x20e>
  205eb8:	8522                	mv	a0,s0
  205eba:	5d2000ef          	jal	20648c <sddf_printf_>
  205ebe:	00209537          	lui	a0,0x209
  205ec2:	82950513          	addi	a0,a0,-2007 # 208829 <_text_end+0x7d1>
  205ec6:	5c6000ef          	jal	20648c <sddf_printf_>
  205eca:	00093603          	ld	a2,0(s2)
  205ece:	00208537          	lui	a0,0x208
  205ed2:	05850513          	addi	a0,a0,88 # 208058 <_text_end>
  205ed6:	85ca                	mv	a1,s2
  205ed8:	86b2                	mv	a3,a2
  205eda:	5b2000ef          	jal	20648c <sddf_printf_>
  205ede:	00893603          	ld	a2,8(s2)
  205ee2:	00890593          	addi	a1,s2,8
  205ee6:	00208537          	lui	a0,0x208
  205eea:	74050513          	addi	a0,a0,1856 # 208740 <_text_end+0x6e8>
  205eee:	86b2                	mv	a3,a2
  205ef0:	59c000ef          	jal	20648c <sddf_printf_>
  205ef4:	8522                	mv	a0,s0
  205ef6:	596000ef          	jal	20648c <sddf_printf_>
  205efa:	00208537          	lui	a0,0x208
  205efe:	15f50513          	addi	a0,a0,351 # 20815f <_text_end+0x107>
  205f02:	58a000ef          	jal	20648c <sddf_printf_>
  205f06:	0020c437          	lui	s0,0x20c
  205f0a:	07043503          	ld	a0,112(s0) # 20c070 <eth_regs>
  205f0e:	6585                	lui	a1,0x1
  205f10:	1045849b          	addiw	s1,a1,260 # 1104 <.Ldebug_abbrev0+0x141>
  205f14:	9526                	add	a0,a0,s1
  205f16:	4d70                	lw	a2,92(a0)
  205f18:	05c50593          	addi	a1,a0,92
  205f1c:	00209537          	lui	a0,0x209
  205f20:	d6550513          	addi	a0,a0,-667 # 208d65 <_text_end+0xd0d>
  205f24:	86b2                	mv	a3,a2
  205f26:	566000ef          	jal	20648c <sddf_printf_>
  205f2a:	07043503          	ld	a0,112(s0)
  205f2e:	9526                	add	a0,a0,s1
  205f30:	5150                	lw	a2,36(a0)
  205f32:	02450593          	addi	a1,a0,36
  205f36:	00208537          	lui	a0,0x208
  205f3a:	4e550513          	addi	a0,a0,1253 # 2084e5 <_text_end+0x48d>
  205f3e:	86b2                	mv	a3,a2
  205f40:	54c000ef          	jal	20648c <sddf_printf_>
  205f44:	07043503          	ld	a0,112(s0)
  205f48:	9526                	add	a0,a0,s1
  205f4a:	4d50                	lw	a2,28(a0)
  205f4c:	01c50593          	addi	a1,a0,28
  205f50:	00208537          	lui	a0,0x208
  205f54:	67750513          	addi	a0,a0,1655 # 208677 <_text_end+0x61f>
  205f58:	86b2                	mv	a3,a2
  205f5a:	532000ef          	jal	20648c <sddf_printf_>
  205f5e:	07043503          	ld	a0,112(s0)
  205f62:	9526                	add	a0,a0,s1
  205f64:	4d10                	lw	a2,24(a0)
  205f66:	01850593          	addi	a1,a0,24
  205f6a:	00208537          	lui	a0,0x208
  205f6e:	0f550513          	addi	a0,a0,245 # 2080f5 <_text_end+0x9d>
  205f72:	86b2                	mv	a3,a2
  205f74:	518000ef          	jal	20648c <sddf_printf_>
  205f78:	07043503          	ld	a0,112(s0)
  205f7c:	9526                	add	a0,a0,s1
  205f7e:	4910                	lw	a2,16(a0)
  205f80:	01050593          	addi	a1,a0,16
  205f84:	00208537          	lui	a0,0x208
  205f88:	1ea50513          	addi	a0,a0,490 # 2081ea <_text_end+0x192>
  205f8c:	86b2                	mv	a3,a2
  205f8e:	4fe000ef          	jal	20648c <sddf_printf_>
  205f92:	07043503          	ld	a0,112(s0)
  205f96:	9526                	add	a0,a0,s1
  205f98:	5910                	lw	a2,48(a0)
  205f9a:	03050593          	addi	a1,a0,48
  205f9e:	00208537          	lui	a0,0x208
  205fa2:	79e50513          	addi	a0,a0,1950 # 20879e <_text_end+0x746>
  205fa6:	86b2                	mv	a3,a2
  205fa8:	4e4000ef          	jal	20648c <sddf_printf_>
  205fac:	07043503          	ld	a0,112(s0)
  205fb0:	9526                	add	a0,a0,s1
  205fb2:	4150                	lw	a2,4(a0)
  205fb4:	00450593          	addi	a1,a0,4
  205fb8:	00208537          	lui	a0,0x208
  205fbc:	7e250513          	addi	a0,a0,2018 # 2087e2 <_text_end+0x78a>
  205fc0:	86b2                	mv	a3,a2
  205fc2:	4ca000ef          	jal	20648c <sddf_printf_>
  205fc6:	07043583          	ld	a1,112(s0)
  205fca:	95a6                	add	a1,a1,s1
  205fcc:	4190                	lw	a2,0(a1)
  205fce:	00208537          	lui	a0,0x208
  205fd2:	40050513          	addi	a0,a0,1024 # 208400 <_text_end+0x3a8>
  205fd6:	86b2                	mv	a3,a2
  205fd8:	4b4000ef          	jal	20648c <sddf_printf_>
  205fdc:	07043503          	ld	a0,112(s0)
  205fe0:	9526                	add	a0,a0,s1
  205fe2:	5550                	lw	a2,44(a0)
  205fe4:	02c50593          	addi	a1,a0,44
  205fe8:	00208537          	lui	a0,0x208
  205fec:	6be50513          	addi	a0,a0,1726 # 2086be <_text_end+0x666>
  205ff0:	86b2                	mv	a3,a2
  205ff2:	49a000ef          	jal	20648c <sddf_printf_>
  205ff6:	07043503          	ld	a0,112(s0)
  205ffa:	9526                	add	a0,a0,s1
  205ffc:	5510                	lw	a2,40(a0)
  205ffe:	02850593          	addi	a1,a0,40
  206002:	00209537          	lui	a0,0x209
  206006:	c6d50513          	addi	a0,a0,-915 # 208c6d <_text_end+0xc15>
  20600a:	86b2                	mv	a3,a2
  20600c:	480000ef          	jal	20648c <sddf_printf_>
  206010:	00208537          	lui	a0,0x208
  206014:	54d50513          	addi	a0,a0,1357 # 20854d <_text_end+0x4f5>
  206018:	70e2                	ld	ra,56(sp)
  20601a:	7442                	ld	s0,48(sp)
  20601c:	74a2                	ld	s1,40(sp)
  20601e:	7902                	ld	s2,32(sp)
  206020:	69e2                	ld	s3,24(sp)
  206022:	6a42                	ld	s4,16(sp)
  206024:	6aa2                	ld	s5,8(sp)
  206026:	6121                	addi	sp,sp,64
  206028:	a195                	j	20648c <sddf_printf_>

000000000020602a <ffiTHREAD_MEMORY_RELEASE>:
  20602a:	0310000f          	fence	rw,w
  20602e:	8082                	ret

0000000000206030 <ffiTHREAD_MEMORY_ACQUIRE>:
  206030:	0230000f          	fence	r,rw
  206034:	8082                	ret

0000000000206036 <ffiassert>:
  206036:	1141                	addi	sp,sp,-16
  206038:	e406                	sd	ra,8(sp)
  20603a:	e022                	sd	s0,0(sp)
  20603c:	8736                	mv	a4,a3
  20603e:	86b2                	mv	a3,a2
  206040:	842e                	mv	s0,a1
  206042:	85aa                	mv	a1,a0
  206044:	00209537          	lui	a0,0x209
  206048:	ce650513          	addi	a0,a0,-794 # 208ce6 <_text_end+0xc8e>
  20604c:	8622                	mv	a2,s0
  20604e:	43e000ef          	jal	20648c <sddf_printf_>
  206052:	c409                	beqz	s0,20605c <ffiassert+0x26>
  206054:	60a2                	ld	ra,8(sp)
  206056:	6402                	ld	s0,0(sp)
  206058:	0141                	addi	sp,sp,16
  20605a:	8082                	ret
  20605c:	00209537          	lui	a0,0x209
  206060:	cc150513          	addi	a0,a0,-831 # 208cc1 <_text_end+0xc69>
  206064:	002085b7          	lui	a1,0x208
  206068:	0af58593          	addi	a1,a1,175 # 2080af <_text_end+0x57>
  20606c:	002096b7          	lui	a3,0x209
  206070:	9be68693          	addi	a3,a3,-1602 # 2089be <_text_end+0x966>
  206074:	4651                	li	a2,20
  206076:	60a2                	ld	ra,8(sp)
  206078:	6402                	ld	s0,0(sp)
  20607a:	0141                	addi	sp,sp,16
  20607c:	0930106f          	j	20790e <_assert_fail>

0000000000206080 <ffimicrokit_notify>:
  206080:	1141                	addi	sp,sp,-16
  206082:	e406                	sd	ra,8(sp)
  206084:	e022                	sd	s0,0(sp)
  206086:	0005841b          	sext.w	s0,a1
  20608a:	03d00513          	li	a0,61
  20608e:	02856563          	bltu	a0,s0,2060b8 <ffimicrokit_notify+0x38>
  206092:	0020a537          	lui	a0,0x20a
  206096:	84853503          	ld	a0,-1976(a0) # 209848 <microkit_notifications>
  20609a:	00b55533          	srl	a0,a0,a1
  20609e:	8905                	andi	a0,a0,1
  2060a0:	cd01                	beqz	a0,2060b8 <ffimicrokit_notify+0x38>
  2060a2:	05a9                	addi	a1,a1,10
  2060a4:	07f5f513          	andi	a0,a1,127
  2060a8:	58ed                	li	a7,-5
  2060aa:	4581                	li	a1,0
  2060ac:	00000073          	ecall
  2060b0:	60a2                	ld	ra,8(sp)
  2060b2:	6402                	ld	s0,0(sp)
  2060b4:	0141                	addi	sp,sp,16
  2060b6:	8082                	ret
  2060b8:	0020d537          	lui	a0,0x20d
  2060bc:	0b050513          	addi	a0,a0,176 # 20d0b0 <microkit_name>
  2060c0:	2af010ef          	jal	207b6e <microkit_dbg_puts>
  2060c4:	00208537          	lui	a0,0x208
  2060c8:	1c050513          	addi	a0,a0,448 # 2081c0 <_text_end+0x168>
  2060cc:	2a3010ef          	jal	207b6e <microkit_dbg_puts>
  2060d0:	8522                	mv	a0,s0
  2060d2:	33b010ef          	jal	207c0c <microkit_dbg_put32>
  2060d6:	00208537          	lui	a0,0x208
  2060da:	52c50513          	addi	a0,a0,1324 # 20852c <_text_end+0x4d4>
  2060de:	60a2                	ld	ra,8(sp)
  2060e0:	6402                	ld	s0,0(sp)
  2060e2:	0141                	addi	sp,sp,16
  2060e4:	28b0106f          	j	207b6e <microkit_dbg_puts>

00000000002060e8 <ffimicrokit_deferred_irq_ack>:
  2060e8:	1141                	addi	sp,sp,-16
  2060ea:	e406                	sd	ra,8(sp)
  2060ec:	e022                	sd	s0,0(sp)
  2060ee:	0005841b          	sext.w	s0,a1
  2060f2:	03d00513          	li	a0,61
  2060f6:	04856063          	bltu	a0,s0,206136 <ffimicrokit_deferred_irq_ack+0x4e>
  2060fa:	0020a537          	lui	a0,0x20a
  2060fe:	85053503          	ld	a0,-1968(a0) # 209850 <microkit_irqs>
  206102:	00b55533          	srl	a0,a0,a1
  206106:	8905                	andi	a0,a0,1
  206108:	c51d                	beqz	a0,206136 <ffimicrokit_deferred_irq_ack+0x4e>
  20610a:	0020a537          	lui	a0,0x20a
  20610e:	4605                	li	a2,1
  206110:	86c50423          	sb	a2,-1944(a0) # 209868 <microkit_have_signal>
  206114:	0020a537          	lui	a0,0x20a
  206118:	6669                	lui	a2,0x1a
  20611a:	08a58593          	addi	a1,a1,138
  20611e:	84c53c23          	sd	a2,-1960(a0) # 209858 <microkit_signal_msg>
  206122:	0ff5f513          	zext.b	a0,a1
  206126:	0020a5b7          	lui	a1,0x20a
  20612a:	86a5b023          	sd	a0,-1952(a1) # 209860 <microkit_signal_cap>
  20612e:	60a2                	ld	ra,8(sp)
  206130:	6402                	ld	s0,0(sp)
  206132:	0141                	addi	sp,sp,16
  206134:	8082                	ret
  206136:	0020d537          	lui	a0,0x20d
  20613a:	0b050513          	addi	a0,a0,176 # 20d0b0 <microkit_name>
  20613e:	231010ef          	jal	207b6e <microkit_dbg_puts>
  206142:	00209537          	lui	a0,0x209
  206146:	d0b50513          	addi	a0,a0,-757 # 208d0b <_text_end+0xcb3>
  20614a:	225010ef          	jal	207b6e <microkit_dbg_puts>
  20614e:	8522                	mv	a0,s0
  206150:	2bd010ef          	jal	207c0c <microkit_dbg_put32>
  206154:	00208537          	lui	a0,0x208
  206158:	52c50513          	addi	a0,a0,1324 # 20852c <_text_end+0x4d4>
  20615c:	60a2                	ld	ra,8(sp)
  20615e:	6402                	ld	s0,0(sp)
  206160:	0141                	addi	sp,sp,16
  206162:	20d0106f          	j	207b6e <microkit_dbg_puts>

0000000000206166 <ffimicrokit_irq_ack>:
  206166:	1141                	addi	sp,sp,-16
  206168:	e406                	sd	ra,8(sp)
  20616a:	e022                	sd	s0,0(sp)
  20616c:	0005841b          	sext.w	s0,a1
  206170:	03d00513          	li	a0,61
  206174:	04856863          	bltu	a0,s0,2061c4 <ffimicrokit_irq_ack+0x5e>
  206178:	0020a537          	lui	a0,0x20a
  20617c:	85053503          	ld	a0,-1968(a0) # 209850 <microkit_irqs>
  206180:	00b55533          	srl	a0,a0,a1
  206184:	8905                	andi	a0,a0,1
  206186:	cd1d                	beqz	a0,2061c4 <ffimicrokit_irq_ack+0x5e>
  206188:	4801                	li	a6,0
  20618a:	4601                	li	a2,0
  20618c:	4681                	li	a3,0
  20618e:	4701                	li	a4,0
  206190:	4781                	li	a5,0
  206192:	08a58513          	addi	a0,a1,138
  206196:	547d                	li	s0,-1
  206198:	58fd                	li	a7,-1
  20619a:	65e9                	lui	a1,0x1a
  20619c:	0ff57513          	zext.b	a0,a0
  2061a0:	1402                	slli	s0,s0,0x20
  2061a2:	8051                	srli	s0,s0,0x14
  2061a4:	00000073          	ecall
  2061a8:	8de1                	and	a1,a1,s0
  2061aa:	c989                	beqz	a1,2061bc <ffimicrokit_irq_ack+0x56>
  2061ac:	00209537          	lui	a0,0x209
  2061b0:	19853503          	ld	a0,408(a0) # 209198 <__sel4_ipc_buffer>
  2061b4:	e510                	sd	a2,8(a0)
  2061b6:	e914                	sd	a3,16(a0)
  2061b8:	ed18                	sd	a4,24(a0)
  2061ba:	f11c                	sd	a5,32(a0)
  2061bc:	60a2                	ld	ra,8(sp)
  2061be:	6402                	ld	s0,0(sp)
  2061c0:	0141                	addi	sp,sp,16
  2061c2:	8082                	ret
  2061c4:	0020d537          	lui	a0,0x20d
  2061c8:	0b050513          	addi	a0,a0,176 # 20d0b0 <microkit_name>
  2061cc:	1a3010ef          	jal	207b6e <microkit_dbg_puts>
  2061d0:	00209537          	lui	a0,0x209
  2061d4:	b5a50513          	addi	a0,a0,-1190 # 208b5a <_text_end+0xb02>
  2061d8:	197010ef          	jal	207b6e <microkit_dbg_puts>
  2061dc:	8522                	mv	a0,s0
  2061de:	22f010ef          	jal	207c0c <microkit_dbg_put32>
  2061e2:	00208537          	lui	a0,0x208
  2061e6:	52c50513          	addi	a0,a0,1324 # 20852c <_text_end+0x4d4>
  2061ea:	60a2                	ld	ra,8(sp)
  2061ec:	6402                	ld	s0,0(sp)
  2061ee:	0141                	addi	sp,sp,16
  2061f0:	17f0106f          	j	207b6e <microkit_dbg_puts>

00000000002061f4 <ffisddf_irq_ack>:
  2061f4:	1141                	addi	sp,sp,-16
  2061f6:	e406                	sd	ra,8(sp)
  2061f8:	e022                	sd	s0,0(sp)
  2061fa:	0005841b          	sext.w	s0,a1
  2061fe:	03d00513          	li	a0,61
  206202:	04856863          	bltu	a0,s0,206252 <ffisddf_irq_ack+0x5e>
  206206:	0020a537          	lui	a0,0x20a
  20620a:	85053503          	ld	a0,-1968(a0) # 209850 <microkit_irqs>
  20620e:	00b55533          	srl	a0,a0,a1
  206212:	8905                	andi	a0,a0,1
  206214:	cd1d                	beqz	a0,206252 <ffisddf_irq_ack+0x5e>
  206216:	4801                	li	a6,0
  206218:	4601                	li	a2,0
  20621a:	4681                	li	a3,0
  20621c:	4701                	li	a4,0
  20621e:	4781                	li	a5,0
  206220:	08a58513          	addi	a0,a1,138 # 1a08a <.Ldebug_info0+0x14e45>
  206224:	547d                	li	s0,-1
  206226:	58fd                	li	a7,-1
  206228:	65e9                	lui	a1,0x1a
  20622a:	0ff57513          	zext.b	a0,a0
  20622e:	1402                	slli	s0,s0,0x20
  206230:	8051                	srli	s0,s0,0x14
  206232:	00000073          	ecall
  206236:	8de1                	and	a1,a1,s0
  206238:	c989                	beqz	a1,20624a <ffisddf_irq_ack+0x56>
  20623a:	00209537          	lui	a0,0x209
  20623e:	19853503          	ld	a0,408(a0) # 209198 <__sel4_ipc_buffer>
  206242:	e510                	sd	a2,8(a0)
  206244:	e914                	sd	a3,16(a0)
  206246:	ed18                	sd	a4,24(a0)
  206248:	f11c                	sd	a5,32(a0)
  20624a:	60a2                	ld	ra,8(sp)
  20624c:	6402                	ld	s0,0(sp)
  20624e:	0141                	addi	sp,sp,16
  206250:	8082                	ret
  206252:	0020d537          	lui	a0,0x20d
  206256:	0b050513          	addi	a0,a0,176 # 20d0b0 <microkit_name>
  20625a:	115010ef          	jal	207b6e <microkit_dbg_puts>
  20625e:	00209537          	lui	a0,0x209
  206262:	b5a50513          	addi	a0,a0,-1190 # 208b5a <_text_end+0xb02>
  206266:	109010ef          	jal	207b6e <microkit_dbg_puts>
  20626a:	8522                	mv	a0,s0
  20626c:	1a1010ef          	jal	207c0c <microkit_dbg_put32>
  206270:	00208537          	lui	a0,0x208
  206274:	52c50513          	addi	a0,a0,1324 # 20852c <_text_end+0x4d4>
  206278:	60a2                	ld	ra,8(sp)
  20627a:	6402                	ld	s0,0(sp)
  20627c:	0141                	addi	sp,sp,16
  20627e:	0f10106f          	j	207b6e <microkit_dbg_puts>

0000000000206282 <ffisddf_notify>:
  206282:	1141                	addi	sp,sp,-16
  206284:	e406                	sd	ra,8(sp)
  206286:	e022                	sd	s0,0(sp)
  206288:	0005841b          	sext.w	s0,a1
  20628c:	03d00513          	li	a0,61
  206290:	02856563          	bltu	a0,s0,2062ba <ffisddf_notify+0x38>
  206294:	0020a537          	lui	a0,0x20a
  206298:	84853503          	ld	a0,-1976(a0) # 209848 <microkit_notifications>
  20629c:	00b55533          	srl	a0,a0,a1
  2062a0:	8905                	andi	a0,a0,1
  2062a2:	cd01                	beqz	a0,2062ba <ffisddf_notify+0x38>
  2062a4:	05a9                	addi	a1,a1,10 # 1a00a <.Ldebug_info0+0x14dc5>
  2062a6:	07f5f513          	andi	a0,a1,127
  2062aa:	58ed                	li	a7,-5
  2062ac:	4581                	li	a1,0
  2062ae:	00000073          	ecall
  2062b2:	60a2                	ld	ra,8(sp)
  2062b4:	6402                	ld	s0,0(sp)
  2062b6:	0141                	addi	sp,sp,16
  2062b8:	8082                	ret
  2062ba:	0020d537          	lui	a0,0x20d
  2062be:	0b050513          	addi	a0,a0,176 # 20d0b0 <microkit_name>
  2062c2:	0ad010ef          	jal	207b6e <microkit_dbg_puts>
  2062c6:	00208537          	lui	a0,0x208
  2062ca:	1c050513          	addi	a0,a0,448 # 2081c0 <_text_end+0x168>
  2062ce:	0a1010ef          	jal	207b6e <microkit_dbg_puts>
  2062d2:	8522                	mv	a0,s0
  2062d4:	139010ef          	jal	207c0c <microkit_dbg_put32>
  2062d8:	00208537          	lui	a0,0x208
  2062dc:	52c50513          	addi	a0,a0,1324 # 20852c <_text_end+0x4d4>
  2062e0:	60a2                	ld	ra,8(sp)
  2062e2:	6402                	ld	s0,0(sp)
  2062e4:	0141                	addi	sp,sp,16
  2062e6:	0890106f          	j	207b6e <microkit_dbg_puts>

00000000002062ea <ffisddf_notify0>:
  2062ea:	1141                	addi	sp,sp,-16
  2062ec:	e406                	sd	ra,8(sp)
  2062ee:	e022                	sd	s0,0(sp)
  2062f0:	0005841b          	sext.w	s0,a1
  2062f4:	03d00513          	li	a0,61
  2062f8:	02856563          	bltu	a0,s0,206322 <ffisddf_notify0+0x38>
  2062fc:	0020a537          	lui	a0,0x20a
  206300:	84853503          	ld	a0,-1976(a0) # 209848 <microkit_notifications>
  206304:	00b55533          	srl	a0,a0,a1
  206308:	8905                	andi	a0,a0,1
  20630a:	cd01                	beqz	a0,206322 <ffisddf_notify0+0x38>
  20630c:	05a9                	addi	a1,a1,10
  20630e:	07f5f513          	andi	a0,a1,127
  206312:	58ed                	li	a7,-5
  206314:	4581                	li	a1,0
  206316:	00000073          	ecall
  20631a:	60a2                	ld	ra,8(sp)
  20631c:	6402                	ld	s0,0(sp)
  20631e:	0141                	addi	sp,sp,16
  206320:	8082                	ret
  206322:	0020d537          	lui	a0,0x20d
  206326:	0b050513          	addi	a0,a0,176 # 20d0b0 <microkit_name>
  20632a:	045010ef          	jal	207b6e <microkit_dbg_puts>
  20632e:	00208537          	lui	a0,0x208
  206332:	1c050513          	addi	a0,a0,448 # 2081c0 <_text_end+0x168>
  206336:	039010ef          	jal	207b6e <microkit_dbg_puts>
  20633a:	8522                	mv	a0,s0
  20633c:	0d1010ef          	jal	207c0c <microkit_dbg_put32>
  206340:	00208537          	lui	a0,0x208
  206344:	52c50513          	addi	a0,a0,1324 # 20852c <_text_end+0x4d4>
  206348:	60a2                	ld	ra,8(sp)
  20634a:	6402                	ld	s0,0(sp)
  20634c:	0141                	addi	sp,sp,16
  20634e:	0210106f          	j	207b6e <microkit_dbg_puts>

0000000000206352 <ffisddf_notify1>:
  206352:	1141                	addi	sp,sp,-16
  206354:	e406                	sd	ra,8(sp)
  206356:	e022                	sd	s0,0(sp)
  206358:	0005841b          	sext.w	s0,a1
  20635c:	03d00513          	li	a0,61
  206360:	02856563          	bltu	a0,s0,20638a <ffisddf_notify1+0x38>
  206364:	0020a537          	lui	a0,0x20a
  206368:	84853503          	ld	a0,-1976(a0) # 209848 <microkit_notifications>
  20636c:	00b55533          	srl	a0,a0,a1
  206370:	8905                	andi	a0,a0,1
  206372:	cd01                	beqz	a0,20638a <ffisddf_notify1+0x38>
  206374:	05a9                	addi	a1,a1,10
  206376:	07f5f513          	andi	a0,a1,127
  20637a:	58ed                	li	a7,-5
  20637c:	4581                	li	a1,0
  20637e:	00000073          	ecall
  206382:	60a2                	ld	ra,8(sp)
  206384:	6402                	ld	s0,0(sp)
  206386:	0141                	addi	sp,sp,16
  206388:	8082                	ret
  20638a:	0020d537          	lui	a0,0x20d
  20638e:	0b050513          	addi	a0,a0,176 # 20d0b0 <microkit_name>
  206392:	7dc010ef          	jal	207b6e <microkit_dbg_puts>
  206396:	00208537          	lui	a0,0x208
  20639a:	1c050513          	addi	a0,a0,448 # 2081c0 <_text_end+0x168>
  20639e:	7d0010ef          	jal	207b6e <microkit_dbg_puts>
  2063a2:	8522                	mv	a0,s0
  2063a4:	069010ef          	jal	207c0c <microkit_dbg_put32>
  2063a8:	00208537          	lui	a0,0x208
  2063ac:	52c50513          	addi	a0,a0,1324 # 20852c <_text_end+0x4d4>
  2063b0:	60a2                	ld	ra,8(sp)
  2063b2:	6402                	ld	s0,0(sp)
  2063b4:	0141                	addi	sp,sp,16
  2063b6:	7b80106f          	j	207b6e <microkit_dbg_puts>

00000000002063ba <ffisddf_deferred_notify>:
  2063ba:	1141                	addi	sp,sp,-16
  2063bc:	e406                	sd	ra,8(sp)
  2063be:	e022                	sd	s0,0(sp)
  2063c0:	0005841b          	sext.w	s0,a1
  2063c4:	03d00513          	li	a0,61
  2063c8:	02856e63          	bltu	a0,s0,206404 <ffisddf_deferred_notify+0x4a>
  2063cc:	0020a537          	lui	a0,0x20a
  2063d0:	84853503          	ld	a0,-1976(a0) # 209848 <microkit_notifications>
  2063d4:	00b55533          	srl	a0,a0,a1
  2063d8:	8905                	andi	a0,a0,1
  2063da:	c50d                	beqz	a0,206404 <ffisddf_deferred_notify+0x4a>
  2063dc:	0020a537          	lui	a0,0x20a
  2063e0:	4605                	li	a2,1
  2063e2:	86c50423          	sb	a2,-1944(a0) # 209868 <microkit_have_signal>
  2063e6:	0020a537          	lui	a0,0x20a
  2063ea:	05a9                	addi	a1,a1,10
  2063ec:	84053c23          	sd	zero,-1960(a0) # 209858 <microkit_signal_msg>
  2063f0:	07f5f513          	andi	a0,a1,127
  2063f4:	0020a5b7          	lui	a1,0x20a
  2063f8:	86a5b023          	sd	a0,-1952(a1) # 209860 <microkit_signal_cap>
  2063fc:	60a2                	ld	ra,8(sp)
  2063fe:	6402                	ld	s0,0(sp)
  206400:	0141                	addi	sp,sp,16
  206402:	8082                	ret
  206404:	0020d537          	lui	a0,0x20d
  206408:	0b050513          	addi	a0,a0,176 # 20d0b0 <microkit_name>
  20640c:	762010ef          	jal	207b6e <microkit_dbg_puts>
  206410:	00208537          	lui	a0,0x208
  206414:	63450513          	addi	a0,a0,1588 # 208634 <_text_end+0x5dc>
  206418:	756010ef          	jal	207b6e <microkit_dbg_puts>
  20641c:	8522                	mv	a0,s0
  20641e:	7ee010ef          	jal	207c0c <microkit_dbg_put32>
  206422:	00208537          	lui	a0,0x208
  206426:	52c50513          	addi	a0,a0,1324 # 20852c <_text_end+0x4d4>
  20642a:	60a2                	ld	ra,8(sp)
  20642c:	6402                	ld	s0,0(sp)
  20642e:	0141                	addi	sp,sp,16
  206430:	73e0106f          	j	207b6e <microkit_dbg_puts>

0000000000206434 <fficache_clean>:
  206434:	85b2                	mv	a1,a2
  206436:	a891                	j	20648a <cache_clean>

0000000000206438 <fficache_clean_and_invalidate>:
  206438:	85b2                	mv	a1,a2
  20643a:	a0b9                	j	206488 <cache_clean_and_invalidate>

000000000020643c <ffild16>:
  20643c:	00051503          	lh	a0,0(a0)
  206440:	00a61023          	sh	a0,0(a2) # 1a000 <.Ldebug_info0+0x14dbb>
  206444:	8082                	ret

0000000000206446 <ffist16>:
  206446:	00b51023          	sh	a1,0(a0)
  20644a:	8082                	ret

000000000020644c <ffimemcpy>:
  20644c:	ce01                	beqz	a2,206464 <ffimemcpy+0x18>
  20644e:	962a                	add	a2,a2,a0
  206450:	0005c683          	lbu	a3,0(a1)
  206454:	0585                	addi	a1,a1,1
  206456:	00150713          	addi	a4,a0,1
  20645a:	00d50023          	sb	a3,0(a0)
  20645e:	853a                	mv	a0,a4
  206460:	fec718e3          	bne	a4,a2,206450 <ffimemcpy+0x4>
  206464:	8082                	ret

0000000000206466 <ffidebug_print>:
  206466:	00209537          	lui	a0,0x209
  20646a:	92d50513          	addi	a0,a0,-1747 # 20892d <_text_end+0x8d5>
  20646e:	862e                	mv	a2,a1
  206470:	85b6                	mv	a1,a3
  206472:	86b2                	mv	a3,a2
  206474:	a821                	j	20648c <sddf_printf_>

0000000000206476 <ffiseL4_SetMR>:
  206476:	00209537          	lui	a0,0x209
  20647a:	19853503          	ld	a0,408(a0) # 209198 <__sel4_ipc_buffer>
  20647e:	2581                	sext.w	a1,a1
  206480:	058e                	slli	a1,a1,0x3
  206482:	952e                	add	a0,a0,a1
  206484:	e514                	sd	a3,8(a0)
  206486:	8082                	ret

0000000000206488 <cache_clean_and_invalidate>:
  206488:	8082                	ret

000000000020648a <cache_clean>:
  20648a:	8082                	ret

000000000020648c <sddf_printf_>:
  20648c:	711d                	addi	sp,sp,-96
  20648e:	ec06                	sd	ra,24(sp)
  206490:	82aa                	mv	t0,a0
  206492:	e4be                	sd	a5,72(sp)
  206494:	e8c2                	sd	a6,80(sp)
  206496:	ecc6                	sd	a7,88(sp)
  206498:	f42e                	sd	a1,40(sp)
  20649a:	f832                	sd	a2,48(sp)
  20649c:	fc36                	sd	a3,56(sp)
  20649e:	e0ba                	sd	a4,64(sp)
  2064a0:	1028                	addi	a0,sp,40
  2064a2:	e82a                	sd	a0,16(sp)
  2064a4:	00207537          	lui	a0,0x207
  2064a8:	ce050513          	addi	a0,a0,-800 # 206ce0 <_out_char>
  2064ac:	00f10593          	addi	a1,sp,15
  2064b0:	567d                	li	a2,-1
  2064b2:	1038                	addi	a4,sp,40
  2064b4:	8696                	mv	a3,t0
  2064b6:	00a000ef          	jal	2064c0 <_vsnprintf>
  2064ba:	60e2                	ld	ra,24(sp)
  2064bc:	6125                	addi	sp,sp,96
  2064be:	8082                	ret

00000000002064c0 <_vsnprintf>:
  2064c0:	7131                	addi	sp,sp,-192
  2064c2:	fd06                	sd	ra,184(sp)
  2064c4:	f922                	sd	s0,176(sp)
  2064c6:	f526                	sd	s1,168(sp)
  2064c8:	f14a                	sd	s2,160(sp)
  2064ca:	ed4e                	sd	s3,152(sp)
  2064cc:	e952                	sd	s4,144(sp)
  2064ce:	e556                	sd	s5,136(sp)
  2064d0:	e15a                	sd	s6,128(sp)
  2064d2:	fcde                	sd	s7,120(sp)
  2064d4:	f8e2                	sd	s8,112(sp)
  2064d6:	f4e6                	sd	s9,104(sp)
  2064d8:	f0ea                	sd	s10,96(sp)
  2064da:	ecee                	sd	s11,88(sp)
  2064dc:	8cb6                	mv	s9,a3
  2064de:	8ab2                	mv	s5,a2
  2064e0:	8a2e                	mv	s4,a1
  2064e2:	c199                	beqz	a1,2064e8 <_vsnprintf+0x28>
  2064e4:	892a                	mv	s2,a0
  2064e6:	a029                	j	2064f0 <_vsnprintf+0x30>
  2064e8:	00207937          	lui	s2,0x207
  2064ec:	dc690913          	addi	s2,s2,-570 # 206dc6 <_out_null>
  2064f0:	f83a                	sd	a4,48(sp)
  2064f2:	4b01                	li	s6,0
  2064f4:	02500d13          	li	s10,37
  2064f8:	4c41                	li	s8,16
  2064fa:	4505                	li	a0,1
  2064fc:	00b5151b          	slliw	a0,a0,0xb
  206500:	f42a                	sd	a0,40(sp)
  206502:	00208db7          	lui	s11,0x208
  206506:	e48d8d93          	addi	s11,s11,-440 # 207e48 <.LJTI1_0>
  20650a:	4981                	li	s3,0
  20650c:	002c8413          	addi	s0,s9,2
  206510:	4b81                	li	s7,0
  206512:	4601                	li	a2,0
  206514:	000cc503          	lbu	a0,0(s9)
  206518:	78050b63          	beqz	a0,206cae <_vsnprintf+0x7ee>
  20651c:	03a50063          	beq	a0,s10,20653c <_vsnprintf+0x7c>
  206520:	00160493          	addi	s1,a2,1
  206524:	85d2                	mv	a1,s4
  206526:	86d6                	mv	a3,s5
  206528:	9902                	jalr	s2
  20652a:	0c85                	addi	s9,s9,1
  20652c:	0b85                	addi	s7,s7,1 # ffffffffc1000001 <__sel4_ipc_buffer_obj+0xffffffffc0df2001>
  20652e:	0405                	addi	s0,s0,1
  206530:	0985                	addi	s3,s3,1
  206532:	8626                	mv	a2,s1
  206534:	000cc503          	lbu	a0,0(s9)
  206538:	f175                	bnez	a0,20651c <_vsnprintf+0x5c>
  20653a:	af95                	j	206cae <_vsnprintf+0x7ee>
  20653c:	4f01                	li	t5,0
  20653e:	a029                	j	206548 <_vsnprintf+0x88>
  206540:	45a1                	li	a1,8
  206542:	00bf6f33          	or	t5,t5,a1
  206546:	0405                	addi	s0,s0,1
  206548:	fff44503          	lbu	a0,-1(s0)
  20654c:	fe050593          	addi	a1,a0,-32
  206550:	00bc6d63          	bltu	s8,a1,20656a <_vsnprintf+0xaa>
  206554:	058a                	slli	a1,a1,0x2
  206556:	95ee                	add	a1,a1,s11
  206558:	4194                	lw	a3,0(a1)
  20655a:	4585                	li	a1,1
  20655c:	8682                	jr	a3
  20655e:	45c1                	li	a1,16
  206560:	b7cd                	j	206542 <_vsnprintf+0x82>
  206562:	4591                	li	a1,4
  206564:	bff9                	j	206542 <_vsnprintf+0x82>
  206566:	4589                	li	a1,2
  206568:	bfe9                	j	206542 <_vsnprintf+0x82>
  20656a:	fd050593          	addi	a1,a0,-48
  20656e:	0ff5f593          	zext.b	a1,a1
  206572:	fff40b93          	addi	s7,s0,-1
  206576:	46a5                	li	a3,9
  206578:	06b6e763          	bltu	a3,a1,2065e6 <_vsnprintf+0x126>
  20657c:	4c81                	li	s9,0
  20657e:	44a9                	li	s1,10
  206580:	0ff57593          	zext.b	a1,a0
  206584:	001bc503          	lbu	a0,1(s7)
  206588:	029c86b3          	mul	a3,s9,s1
  20658c:	0b85                	addi	s7,s7,1
  20658e:	95b6                	add	a1,a1,a3
  206590:	fd050693          	addi	a3,a0,-48
  206594:	0ff6f693          	zext.b	a3,a3
  206598:	fd058c9b          	addiw	s9,a1,-48
  20659c:	fe96e2e3          	bltu	a3,s1,206580 <_vsnprintf+0xc0>
  2065a0:	02e00593          	li	a1,46
  2065a4:	0ab51e63          	bne	a0,a1,206660 <_vsnprintf+0x1a0>
  2065a8:	001bc503          	lbu	a0,1(s7)
  2065ac:	400f6f13          	ori	t5,t5,1024
  2065b0:	fd050593          	addi	a1,a0,-48
  2065b4:	0ff5f693          	zext.b	a3,a1
  2065b8:	001b8593          	addi	a1,s7,1
  2065bc:	4725                	li	a4,9
  2065be:	04d76f63          	bltu	a4,a3,20661c <_vsnprintf+0x15c>
  2065c2:	4d01                	li	s10,0
  2065c4:	0ff57693          	zext.b	a3,a0
  2065c8:	0015c503          	lbu	a0,1(a1)
  2065cc:	029d0733          	mul	a4,s10,s1
  2065d0:	0585                	addi	a1,a1,1
  2065d2:	96ba                	add	a3,a3,a4
  2065d4:	fd050713          	addi	a4,a0,-48
  2065d8:	0ff77713          	zext.b	a4,a4
  2065dc:	fd068d1b          	addiw	s10,a3,-48
  2065e0:	fe9762e3          	bltu	a4,s1,2065c4 <_vsnprintf+0x104>
  2065e4:	a859                	j	20667a <_vsnprintf+0x1ba>
  2065e6:	02a00593          	li	a1,42
  2065ea:	06b51563          	bne	a0,a1,206654 <_vsnprintf+0x194>
  2065ee:	76c2                	ld	a3,48(sp)
  2065f0:	428c                	lw	a1,0(a3)
  2065f2:	06a1                	addi	a3,a3,8
  2065f4:	41f5d51b          	sraiw	a0,a1,0x1f
  2065f8:	00a5c4b3          	xor	s1,a1,a0
  2065fc:	40a48cbb          	subw	s9,s1,a0
  206600:	00044503          	lbu	a0,0(s0)
  206604:	81f9                	srli	a1,a1,0x1e
  206606:	8989                	andi	a1,a1,2
  206608:	01e5ef33          	or	t5,a1,t5
  20660c:	8ba2                	mv	s7,s0
  20660e:	f836                	sd	a3,48(sp)
  206610:	44a9                	li	s1,10
  206612:	02e00593          	li	a1,46
  206616:	f8b509e3          	beq	a0,a1,2065a8 <_vsnprintf+0xe8>
  20661a:	a099                	j	206660 <_vsnprintf+0x1a0>
  20661c:	02a00693          	li	a3,42
  206620:	04d51c63          	bne	a0,a3,206678 <_vsnprintf+0x1b8>
  206624:	76c2                	ld	a3,48(sp)
  206626:	428c                	lw	a1,0(a3)
  206628:	06a1                	addi	a3,a3,8
  20662a:	002bc503          	lbu	a0,2(s7)
  20662e:	00b02733          	sgtz	a4,a1
  206632:	40e0073b          	negw	a4,a4
  206636:	0b89                	addi	s7,s7,2
  206638:	00b77d33          	and	s10,a4,a1
  20663c:	f836                	sd	a3,48(sp)
  20663e:	f9850593          	addi	a1,a0,-104
  206642:	0015d69b          	srliw	a3,a1,0x1
  206646:	01f5959b          	slliw	a1,a1,0x1f
  20664a:	8dd5                	or	a1,a1,a3
  20664c:	46a5                	li	a3,9
  20664e:	04b6f163          	bgeu	a3,a1,206690 <_vsnprintf+0x1d0>
  206652:	a8b9                	j	2066b0 <_vsnprintf+0x1f0>
  206654:	4c81                	li	s9,0
  206656:	44a9                	li	s1,10
  206658:	02e00593          	li	a1,46
  20665c:	f4b506e3          	beq	a0,a1,2065a8 <_vsnprintf+0xe8>
  206660:	4d01                	li	s10,0
  206662:	f9850593          	addi	a1,a0,-104
  206666:	0015d69b          	srliw	a3,a1,0x1
  20666a:	01f5959b          	slliw	a1,a1,0x1f
  20666e:	8dd5                	or	a1,a1,a3
  206670:	46a5                	li	a3,9
  206672:	00b6ff63          	bgeu	a3,a1,206690 <_vsnprintf+0x1d0>
  206676:	a82d                	j	2066b0 <_vsnprintf+0x1f0>
  206678:	4d01                	li	s10,0
  20667a:	8bae                	mv	s7,a1
  20667c:	f9850593          	addi	a1,a0,-104
  206680:	0015d69b          	srliw	a3,a1,0x1
  206684:	01f5959b          	slliw	a1,a1,0x1f
  206688:	8dd5                	or	a1,a1,a3
  20668a:	46a5                	li	a3,9
  20668c:	02b6e263          	bltu	a3,a1,2066b0 <_vsnprintf+0x1f0>
  206690:	058a                	slli	a1,a1,0x2
  206692:	002086b7          	lui	a3,0x208
  206696:	e8c68693          	addi	a3,a3,-372 # 207e8c <.LJTI1_1>
  20669a:	95b6                	add	a1,a1,a3
  20669c:	4198                	lw	a4,0(a1)
  20669e:	4585                	li	a1,1
  2066a0:	10000693          	li	a3,256
  2066a4:	8702                	jr	a4
  2066a6:	9bae                	add	s7,s7,a1
  2066a8:	000bc503          	lbu	a0,0(s7)
  2066ac:	00df6f33          	or	t5,t5,a3
  2066b0:	fdb50593          	addi	a1,a0,-37
  2066b4:	05300693          	li	a3,83
  2066b8:	0eb6ed63          	bltu	a3,a1,2067b2 <_vsnprintf+0x2f2>
  2066bc:	058a                	slli	a1,a1,0x2
  2066be:	002086b7          	lui	a3,0x208
  2066c2:	eb468693          	addi	a3,a3,-332 # 207eb4 <.LJTI1_2>
  2066c6:	95b6                	add	a1,a1,a3
  2066c8:	4194                	lw	a3,0(a1)
  2066ca:	45a1                	li	a1,8
  2066cc:	48c1                	li	a7,16
  2066ce:	8682                	jr	a3
  2066d0:	feff7f13          	andi	t5,t5,-17
  2066d4:	48a9                	li	a7,10
  2066d6:	fa850593          	addi	a1,a0,-88
  2066da:	0015b593          	seqz	a1,a1
  2066de:	0055959b          	slliw	a1,a1,0x5
  2066e2:	00bf6f33          	or	t5,t5,a1
  2066e6:	06400593          	li	a1,100
  2066ea:	0eb50663          	beq	a0,a1,2067d6 <_vsnprintf+0x316>
  2066ee:	85c6                	mv	a1,a7
  2066f0:	06900693          	li	a3,105
  2066f4:	0ed50163          	beq	a0,a3,2067d6 <_vsnprintf+0x316>
  2066f8:	a8e1                	j	2067d0 <_vsnprintf+0x310>
  2066fa:	001bc503          	lbu	a0,1(s7)
  2066fe:	06800593          	li	a1,104
  206702:	06b51c63          	bne	a0,a1,20677a <_vsnprintf+0x2ba>
  206706:	4589                	li	a1,2
  206708:	0c000693          	li	a3,192
  20670c:	bf69                	j	2066a6 <_vsnprintf+0x1e6>
  20670e:	001bc503          	lbu	a0,1(s7)
  206712:	06c00593          	li	a1,108
  206716:	06b51663          	bne	a0,a1,206782 <_vsnprintf+0x2c2>
  20671a:	4589                	li	a1,2
  20671c:	30000693          	li	a3,768
  206720:	b759                	j	2066a6 <_vsnprintf+0x1e6>
  206722:	75a2                	ld	a1,40(sp)
  206724:	00bf6f33          	or	t5,t5,a1
  206728:	00256513          	ori	a0,a0,2
  20672c:	04700593          	li	a1,71
  206730:	00b51463          	bne	a0,a1,206738 <_vsnprintf+0x278>
  206734:	020f6f13          	ori	t5,t5,32
  206738:	7442                	ld	s0,48(sp)
  20673a:	2008                	fld	fa0,0(s0)
  20673c:	00840993          	addi	s3,s0,8
  206740:	854a                	mv	a0,s2
  206742:	85d2                	mv	a1,s4
  206744:	86d6                	mv	a3,s5
  206746:	876a                	mv	a4,s10
  206748:	87e6                	mv	a5,s9
  20674a:	887a                	mv	a6,t5
  20674c:	38f000ef          	jal	2072da <_etoa>
  206750:	a6ed                	j	206b3a <_vsnprintf+0x67a>
  206752:	fba50513          	addi	a0,a0,-70
  206756:	7442                	ld	s0,48(sp)
  206758:	2008                	fld	fa0,0(s0)
  20675a:	00153513          	seqz	a0,a0
  20675e:	0055151b          	slliw	a0,a0,0x5
  206762:	00af6833          	or	a6,t5,a0
  206766:	00840993          	addi	s3,s0,8
  20676a:	854a                	mv	a0,s2
  20676c:	85d2                	mv	a1,s4
  20676e:	86d6                	mv	a3,s5
  206770:	876a                	mv	a4,s10
  206772:	87e6                	mv	a5,s9
  206774:	654000ef          	jal	206dc8 <_ftoa>
  206778:	a6c9                	j	206b3a <_vsnprintf+0x67a>
  20677a:	080f6f13          	ori	t5,t5,128
  20677e:	0b85                	addi	s7,s7,1
  206780:	bf05                	j	2066b0 <_vsnprintf+0x1f0>
  206782:	100f6f13          	ori	t5,t5,256
  206786:	0b85                	addi	s7,s7,1
  206788:	b725                	j	2066b0 <_vsnprintf+0x1f0>
  20678a:	79c2                	ld	s3,48(sp)
  20678c:	0009b503          	ld	a0,0(s3)
  206790:	021f6f13          	ori	t5,t5,33
  206794:	e119                	bnez	a0,20679a <_vsnprintf+0x2da>
  206796:	feff7f13          	andi	t5,t5,-17
  20679a:	03810813          	addi	a6,sp,56
  20679e:	48f9                	li	a7,30
  2067a0:	443d                	li	s0,15
  2067a2:	34051a63          	bnez	a0,206af6 <_vsnprintf+0x636>
  2067a6:	400f7593          	andi	a1,t5,1024
  2067aa:	34058663          	beqz	a1,206af6 <_vsnprintf+0x636>
  2067ae:	4781                	li	a5,0
  2067b0:	ae95                	j	206b24 <_vsnprintf+0x664>
  2067b2:	00160b13          	addi	s6,a2,1
  2067b6:	a029                	j	2067c0 <_vsnprintf+0x300>
  2067b8:	00160b13          	addi	s6,a2,1
  2067bc:	02500513          	li	a0,37
  2067c0:	85d2                	mv	a1,s4
  2067c2:	86d6                	mv	a3,s5
  2067c4:	9902                	jalr	s2
  2067c6:	02500d13          	li	s10,37
  2067ca:	79c2                	ld	s3,48(sp)
  2067cc:	a939                	j	206bea <_vsnprintf+0x72a>
  2067ce:	4589                	li	a1,2
  2067d0:	ff3f7f13          	andi	t5,t5,-13
  2067d4:	88ae                	mv	a7,a1
  2067d6:	400f7593          	andi	a1,t5,1024
  2067da:	c199                	beqz	a1,2067e0 <_vsnprintf+0x320>
  2067dc:	ffef7f13          	andi	t5,t5,-2
  2067e0:	79c2                	ld	s3,48(sp)
  2067e2:	200f7593          	andi	a1,t5,512
  2067e6:	06900693          	li	a3,105
  2067ea:	03810313          	addi	t1,sp,56
  2067ee:	43f9                	li	t2,30
  2067f0:	00d50663          	beq	a0,a3,2067fc <_vsnprintf+0x33c>
  2067f4:	06400693          	li	a3,100
  2067f8:	08d51963          	bne	a0,a3,20688a <_vsnprintf+0x3ca>
  2067fc:	e595                	bnez	a1,206828 <_vsnprintf+0x368>
  2067fe:	100f7513          	andi	a0,t5,256
  206802:	e945                	bnez	a0,2068b2 <_vsnprintf+0x3f2>
  206804:	040f7513          	andi	a0,t5,64
  206808:	22051163          	bnez	a0,206a2a <_vsnprintf+0x56a>
  20680c:	0009a803          	lw	a6,0(s3)
  206810:	080f7513          	andi	a0,t5,128
  206814:	38051f63          	bnez	a0,206bb2 <_vsnprintf+0x6f2>
  206818:	20081d63          	bnez	a6,206a32 <_vsnprintf+0x572>
  20681c:	ceff7f13          	andi	t5,t5,-785
  206820:	42a9                	li	t0,10
  206822:	20080b63          	beqz	a6,206a38 <_vsnprintf+0x578>
  206826:	a405                	j	206a46 <_vsnprintf+0x586>
  206828:	0009b803          	ld	a6,0(s3)
  20682c:	00081463          	bnez	a6,206834 <_vsnprintf+0x374>
  206830:	feff7f13          	andi	t5,t5,-17
  206834:	42a9                	li	t0,10
  206836:	00081563          	bnez	a6,206840 <_vsnprintf+0x380>
  20683a:	400f7513          	andi	a0,t5,1024
  20683e:	e559                	bnez	a0,2068cc <_vsnprintf+0x40c>
  206840:	4481                	li	s1,0
  206842:	43f85513          	srai	a0,a6,0x3f
  206846:	00a84433          	xor	s0,a6,a0
  20684a:	8c09                	sub	s0,s0,a0
  20684c:	020f7513          	andi	a0,t5,32
  206850:	06154513          	xori	a0,a0,97
  206854:	0f650513          	addi	a0,a0,246
  206858:	86a2                	mv	a3,s0
  20685a:	03145433          	divu	s0,s0,a7
  20685e:	03140733          	mul	a4,s0,a7
  206862:	40e68733          	sub	a4,a3,a4
  206866:	00576463          	bltu	a4,t0,20686e <_vsnprintf+0x3ae>
  20686a:	972a                	add	a4,a4,a0
  20686c:	a019                	j	206872 <_vsnprintf+0x3b2>
  20686e:	03076713          	ori	a4,a4,48
  206872:	00148793          	addi	a5,s1,1
  206876:	009305b3          	add	a1,t1,s1
  20687a:	00e58023          	sb	a4,0(a1)
  20687e:	0493e863          	bltu	t2,s1,2068ce <_vsnprintf+0x40e>
  206882:	84be                	mv	s1,a5
  206884:	fd16fae3          	bgeu	a3,a7,206858 <_vsnprintf+0x398>
  206888:	a099                	j	2068ce <_vsnprintf+0x40e>
  20688a:	e9a9                	bnez	a1,2068dc <_vsnprintf+0x41c>
  20688c:	100f7513          	andi	a0,t5,256
  206890:	20051263          	bnez	a0,206a94 <_vsnprintf+0x5d4>
  206894:	040f7513          	andi	a0,t5,64
  206898:	32051363          	bnez	a0,206bbe <_vsnprintf+0x6fe>
  20689c:	0009a583          	lw	a1,0(s3)
  2068a0:	080f7513          	andi	a0,t5,128
  2068a4:	24050363          	beqz	a0,206aea <_vsnprintf+0x62a>
  2068a8:	15c2                	slli	a1,a1,0x30
  2068aa:	91c1                	srli	a1,a1,0x30
  2068ac:	30059c63          	bnez	a1,206bc4 <_vsnprintf+0x704>
  2068b0:	ac35                	j	206aec <_vsnprintf+0x62c>
  2068b2:	0009b803          	ld	a6,0(s3)
  2068b6:	00081463          	bnez	a6,2068be <_vsnprintf+0x3fe>
  2068ba:	deff7f13          	andi	t5,t5,-529
  2068be:	42a9                	li	t0,10
  2068c0:	12081063          	bnez	a6,2069e0 <_vsnprintf+0x520>
  2068c4:	400f7513          	andi	a0,t5,1024
  2068c8:	10050c63          	beqz	a0,2069e0 <_vsnprintf+0x520>
  2068cc:	4781                	li	a5,0
  2068ce:	03f85813          	srli	a6,a6,0x3f
  2068d2:	1838                	addi	a4,sp,56
  2068d4:	854a                	mv	a0,s2
  2068d6:	85d2                	mv	a1,s4
  2068d8:	86d6                	mv	a3,s5
  2068da:	a601                	j	206bda <_vsnprintf+0x71a>
  2068dc:	0009b503          	ld	a0,0(s3)
  2068e0:	e119                	bnez	a0,2068e6 <_vsnprintf+0x426>
  2068e2:	feff7f13          	andi	t5,t5,-17
  2068e6:	4829                	li	a6,10
  2068e8:	e509                	bnez	a0,2068f2 <_vsnprintf+0x432>
  2068ea:	400f7593          	andi	a1,t5,1024
  2068ee:	2e059063          	bnez	a1,206bce <_vsnprintf+0x70e>
  2068f2:	4481                	li	s1,0
  2068f4:	020f7693          	andi	a3,t5,32
  2068f8:	0616c693          	xori	a3,a3,97
  2068fc:	0f668413          	addi	s0,a3,246
  206900:	872a                	mv	a4,a0
  206902:	03155533          	divu	a0,a0,a7
  206906:	031506b3          	mul	a3,a0,a7
  20690a:	40d706b3          	sub	a3,a4,a3
  20690e:	0106e463          	bltu	a3,a6,206916 <_vsnprintf+0x456>
  206912:	96a2                	add	a3,a3,s0
  206914:	a019                	j	20691a <_vsnprintf+0x45a>
  206916:	0306e693          	ori	a3,a3,48
  20691a:	00148793          	addi	a5,s1,1
  20691e:	009305b3          	add	a1,t1,s1
  206922:	00d58023          	sb	a3,0(a1)
  206926:	2a93e563          	bltu	t2,s1,206bd0 <_vsnprintf+0x710>
  20692a:	84be                	mv	s1,a5
  20692c:	fd177ae3          	bgeu	a4,a7,206900 <_vsnprintf+0x440>
  206930:	a445                	j	206bd0 <_vsnprintf+0x710>
  206932:	7542                	ld	a0,48(sp)
  206934:	6100                	ld	s0,0(a0)
  206936:	01a035b3          	snez	a1,s10
  20693a:	020d1513          	slli	a0,s10,0x20
  20693e:	02055693          	srli	a3,a0,0x20
  206942:	00044503          	lbu	a0,0(s0)
  206946:	15fd                	addi	a1,a1,-1
  206948:	8ecd                	or	a3,a3,a1
  20694a:	85a2                	mv	a1,s0
  20694c:	ce81                	beqz	a3,206964 <_vsnprintf+0x4a4>
  20694e:	85a2                	mv	a1,s0
  206950:	c911                	beqz	a0,206964 <_vsnprintf+0x4a4>
  206952:	16fd                	addi	a3,a3,-1
  206954:	85a2                	mv	a1,s0
  206956:	0015c783          	lbu	a5,1(a1)
  20695a:	0585                	addi	a1,a1,1
  20695c:	c781                	beqz	a5,206964 <_vsnprintf+0x4a4>
  20695e:	8736                	mv	a4,a3
  206960:	16fd                	addi	a3,a3,-1
  206962:	fb75                	bnez	a4,206956 <_vsnprintf+0x496>
  206964:	408586bb          	subw	a3,a1,s0
  206968:	01a6ee63          	bltu	a3,s10,206984 <_vsnprintf+0x4c4>
  20696c:	86ea                	mv	a3,s10
  20696e:	400f7493          	andi	s1,t5,1024
  206972:	ec81                	bnez	s1,20698a <_vsnprintf+0x4ca>
  206974:	408586bb          	subw	a3,a1,s0
  206978:	002f7593          	andi	a1,t5,2
  20697c:	f02e                	sd	a1,32(sp)
  20697e:	2c059763          	bnez	a1,206c4c <_vsnprintf+0x78c>
  206982:	a809                	j	206994 <_vsnprintf+0x4d4>
  206984:	400f7493          	andi	s1,t5,1024
  206988:	d4f5                	beqz	s1,206974 <_vsnprintf+0x4b4>
  20698a:	002f7593          	andi	a1,t5,2
  20698e:	f02e                	sd	a1,32(sp)
  206990:	2a059e63          	bnez	a1,206c4c <_vsnprintf+0x78c>
  206994:	2b96fb63          	bgeu	a3,s9,206c4a <_vsnprintf+0x78a>
  206998:	e426                	sd	s1,8(sp)
  20699a:	e822                	sd	s0,16(sp)
  20699c:	001c851b          	addiw	a0,s9,1
  2069a0:	ec2a                	sd	a0,24(sp)
  2069a2:	fff6c513          	not	a0,a3
  2069a6:	9566                	add	a0,a0,s9
  2069a8:	1502                	slli	a0,a0,0x20
  2069aa:	9101                	srli	a0,a0,0x20
  2069ac:	99da                	add	s3,s3,s6
  2069ae:	954e                	add	a0,a0,s3
  2069b0:	00150413          	addi	s0,a0,1
  2069b4:	00160493          	addi	s1,a2,1
  2069b8:	02000513          	li	a0,32
  2069bc:	85d2                	mv	a1,s4
  2069be:	86d6                	mv	a3,s5
  2069c0:	9902                	jalr	s2
  2069c2:	8626                	mv	a2,s1
  2069c4:	fe8498e3          	bne	s1,s0,2069b4 <_vsnprintf+0x4f4>
  2069c8:	6442                	ld	s0,16(sp)
  2069ca:	00044503          	lbu	a0,0(s0)
  2069ce:	79c2                	ld	s3,48(sp)
  2069d0:	64a2                	ld	s1,8(sp)
  2069d2:	acbd                	j	206c50 <_vsnprintf+0x790>
  2069d4:	002f7493          	andi	s1,t5,2
  2069d8:	16048363          	beqz	s1,206b3e <_vsnprintf+0x67e>
  2069dc:	4d05                	li	s10,1
  2069de:	aa59                	j	206b74 <_vsnprintf+0x6b4>
  2069e0:	4481                	li	s1,0
  2069e2:	43f85513          	srai	a0,a6,0x3f
  2069e6:	00a84433          	xor	s0,a6,a0
  2069ea:	8c09                	sub	s0,s0,a0
  2069ec:	020f7513          	andi	a0,t5,32
  2069f0:	06154513          	xori	a0,a0,97
  2069f4:	0f650513          	addi	a0,a0,246
  2069f8:	86a2                	mv	a3,s0
  2069fa:	03145433          	divu	s0,s0,a7
  2069fe:	03140733          	mul	a4,s0,a7
  206a02:	40e68733          	sub	a4,a3,a4
  206a06:	00576463          	bltu	a4,t0,206a0e <_vsnprintf+0x54e>
  206a0a:	972a                	add	a4,a4,a0
  206a0c:	a019                	j	206a12 <_vsnprintf+0x552>
  206a0e:	03076713          	ori	a4,a4,48
  206a12:	00148793          	addi	a5,s1,1
  206a16:	009305b3          	add	a1,t1,s1
  206a1a:	00e58023          	sb	a4,0(a1)
  206a1e:	ea93e8e3          	bltu	t2,s1,2068ce <_vsnprintf+0x40e>
  206a22:	84be                	mv	s1,a5
  206a24:	fd16fae3          	bgeu	a3,a7,2069f8 <_vsnprintf+0x538>
  206a28:	b55d                	j	2068ce <_vsnprintf+0x40e>
  206a2a:	0009c803          	lbu	a6,0(s3)
  206a2e:	de0807e3          	beqz	a6,20681c <_vsnprintf+0x35c>
  206a32:	42a9                	li	t0,10
  206a34:	00081963          	bnez	a6,206a46 <_vsnprintf+0x586>
  206a38:	400f7513          	andi	a0,t5,1024
  206a3c:	c509                	beqz	a0,206a46 <_vsnprintf+0x586>
  206a3e:	4781                	li	a5,0
  206a40:	01f8581b          	srliw	a6,a6,0x1f
  206a44:	b579                	j	2068d2 <_vsnprintf+0x412>
  206a46:	4481                	li	s1,0
  206a48:	41f8551b          	sraiw	a0,a6,0x1f
  206a4c:	00a84433          	xor	s0,a6,a0
  206a50:	9c09                	subw	s0,s0,a0
  206a52:	020f7513          	andi	a0,t5,32
  206a56:	06154513          	xori	a0,a0,97
  206a5a:	0f650513          	addi	a0,a0,246
